
bomb：     文件格式 elf64-x86-64


Disassembly of section .init:

0000000000400c10 <_init>:
  400c10:	48 83 ec 08          	sub    $0x8,%rsp
  400c14:	48 8b 05 dd 23 20 00 	mov    0x2023dd(%rip),%rax        # 602ff8 <_DYNAMIC+0x1d8>
  400c1b:	48 85 c0             	test   %rax,%rax
  400c1e:	74 02                	je     400c22 <_init+0x12>
  400c20:	ff d0                	callq  *%rax
  400c22:	48 83 c4 08          	add    $0x8,%rsp
  400c26:	c3                   	retq   

Disassembly of section .plt:

0000000000400c30 <getenv@plt-0x10>:
  400c30:	ff 35 d2 23 20 00    	pushq  0x2023d2(%rip)        # 603008 <_GLOBAL_OFFSET_TABLE_+0x8>
  400c36:	ff 25 d4 23 20 00    	jmpq   *0x2023d4(%rip)        # 603010 <_GLOBAL_OFFSET_TABLE_+0x10>
  400c3c:	0f 1f 40 00          	nopl   0x0(%rax)

0000000000400c40 <getenv@plt>:
  400c40:	ff 25 d2 23 20 00    	jmpq   *0x2023d2(%rip)        # 603018 <_GLOBAL_OFFSET_TABLE_+0x18>
  400c46:	68 00 00 00 00       	pushq  $0x0
  400c4b:	e9 e0 ff ff ff       	jmpq   400c30 <_init+0x20>

0000000000400c50 <__errno_location@plt>:
  400c50:	ff 25 ca 23 20 00    	jmpq   *0x2023ca(%rip)        # 603020 <_GLOBAL_OFFSET_TABLE_+0x20>
  400c56:	68 01 00 00 00       	pushq  $0x1
  400c5b:	e9 d0 ff ff ff       	jmpq   400c30 <_init+0x20>

0000000000400c60 <strcpy@plt>:
  400c60:	ff 25 c2 23 20 00    	jmpq   *0x2023c2(%rip)        # 603028 <_GLOBAL_OFFSET_TABLE_+0x28>
  400c66:	68 02 00 00 00       	pushq  $0x2
  400c6b:	e9 c0 ff ff ff       	jmpq   400c30 <_init+0x20>

0000000000400c70 <puts@plt>:
  400c70:	ff 25 ba 23 20 00    	jmpq   *0x2023ba(%rip)        # 603030 <_GLOBAL_OFFSET_TABLE_+0x30>
  400c76:	68 03 00 00 00       	pushq  $0x3
  400c7b:	e9 b0 ff ff ff       	jmpq   400c30 <_init+0x20>

0000000000400c80 <write@plt>:
  400c80:	ff 25 b2 23 20 00    	jmpq   *0x2023b2(%rip)        # 603038 <_GLOBAL_OFFSET_TABLE_+0x38>
  400c86:	68 04 00 00 00       	pushq  $0x4
  400c8b:	e9 a0 ff ff ff       	jmpq   400c30 <_init+0x20>

0000000000400c90 <fclose@plt>:
  400c90:	ff 25 aa 23 20 00    	jmpq   *0x2023aa(%rip)        # 603040 <_GLOBAL_OFFSET_TABLE_+0x40>
  400c96:	68 05 00 00 00       	pushq  $0x5
  400c9b:	e9 90 ff ff ff       	jmpq   400c30 <_init+0x20>

0000000000400ca0 <strlen@plt>:
  400ca0:	ff 25 a2 23 20 00    	jmpq   *0x2023a2(%rip)        # 603048 <_GLOBAL_OFFSET_TABLE_+0x48>
  400ca6:	68 06 00 00 00       	pushq  $0x6
  400cab:	e9 80 ff ff ff       	jmpq   400c30 <_init+0x20>

0000000000400cb0 <system@plt>:
  400cb0:	ff 25 9a 23 20 00    	jmpq   *0x20239a(%rip)        # 603050 <_GLOBAL_OFFSET_TABLE_+0x50>
  400cb6:	68 07 00 00 00       	pushq  $0x7
  400cbb:	e9 70 ff ff ff       	jmpq   400c30 <_init+0x20>

0000000000400cc0 <htons@plt>:
  400cc0:	ff 25 92 23 20 00    	jmpq   *0x202392(%rip)        # 603058 <_GLOBAL_OFFSET_TABLE_+0x58>
  400cc6:	68 08 00 00 00       	pushq  $0x8
  400ccb:	e9 60 ff ff ff       	jmpq   400c30 <_init+0x20>

0000000000400cd0 <printf@plt>:
  400cd0:	ff 25 8a 23 20 00    	jmpq   *0x20238a(%rip)        # 603060 <_GLOBAL_OFFSET_TABLE_+0x60>
  400cd6:	68 09 00 00 00       	pushq  $0x9
  400cdb:	e9 50 ff ff ff       	jmpq   400c30 <_init+0x20>

0000000000400ce0 <rewind@plt>:
  400ce0:	ff 25 82 23 20 00    	jmpq   *0x202382(%rip)        # 603068 <_GLOBAL_OFFSET_TABLE_+0x68>
  400ce6:	68 0a 00 00 00       	pushq  $0xa
  400ceb:	e9 40 ff ff ff       	jmpq   400c30 <_init+0x20>

0000000000400cf0 <dup@plt>:
  400cf0:	ff 25 7a 23 20 00    	jmpq   *0x20237a(%rip)        # 603070 <_GLOBAL_OFFSET_TABLE_+0x70>
  400cf6:	68 0b 00 00 00       	pushq  $0xb
  400cfb:	e9 30 ff ff ff       	jmpq   400c30 <_init+0x20>

0000000000400d00 <close@plt>:
  400d00:	ff 25 72 23 20 00    	jmpq   *0x202372(%rip)        # 603078 <_GLOBAL_OFFSET_TABLE_+0x78>
  400d06:	68 0c 00 00 00       	pushq  $0xc
  400d0b:	e9 20 ff ff ff       	jmpq   400c30 <_init+0x20>

0000000000400d10 <fputc@plt>:
  400d10:	ff 25 6a 23 20 00    	jmpq   *0x20236a(%rip)        # 603080 <_GLOBAL_OFFSET_TABLE_+0x80>
  400d16:	68 0d 00 00 00       	pushq  $0xd
  400d1b:	e9 10 ff ff ff       	jmpq   400c30 <_init+0x20>

0000000000400d20 <fgets@plt>:
  400d20:	ff 25 62 23 20 00    	jmpq   *0x202362(%rip)        # 603088 <_GLOBAL_OFFSET_TABLE_+0x88>
  400d26:	68 0e 00 00 00       	pushq  $0xe
  400d2b:	e9 00 ff ff ff       	jmpq   400c30 <_init+0x20>

0000000000400d30 <tmpfile@plt>:
  400d30:	ff 25 5a 23 20 00    	jmpq   *0x20235a(%rip)        # 603090 <_GLOBAL_OFFSET_TABLE_+0x90>
  400d36:	68 0f 00 00 00       	pushq  $0xf
  400d3b:	e9 f0 fe ff ff       	jmpq   400c30 <_init+0x20>

0000000000400d40 <signal@plt>:
  400d40:	ff 25 52 23 20 00    	jmpq   *0x202352(%rip)        # 603098 <_GLOBAL_OFFSET_TABLE_+0x98>
  400d46:	68 10 00 00 00       	pushq  $0x10
  400d4b:	e9 e0 fe ff ff       	jmpq   400c30 <_init+0x20>

0000000000400d50 <gethostbyname@plt>:
  400d50:	ff 25 4a 23 20 00    	jmpq   *0x20234a(%rip)        # 6030a0 <_GLOBAL_OFFSET_TABLE_+0xa0>
  400d56:	68 11 00 00 00       	pushq  $0x11
  400d5b:	e9 d0 fe ff ff       	jmpq   400c30 <_init+0x20>

0000000000400d60 <fprintf@plt>:
  400d60:	ff 25 42 23 20 00    	jmpq   *0x202342(%rip)        # 6030a8 <_GLOBAL_OFFSET_TABLE_+0xa8>
  400d66:	68 12 00 00 00       	pushq  $0x12
  400d6b:	e9 c0 fe ff ff       	jmpq   400c30 <_init+0x20>

0000000000400d70 <inet_pton@plt>:
  400d70:	ff 25 3a 23 20 00    	jmpq   *0x20233a(%rip)        # 6030b0 <_GLOBAL_OFFSET_TABLE_+0xb0>
  400d76:	68 13 00 00 00       	pushq  $0x13
  400d7b:	e9 b0 fe ff ff       	jmpq   400c30 <_init+0x20>

0000000000400d80 <fflush@plt>:
  400d80:	ff 25 32 23 20 00    	jmpq   *0x202332(%rip)        # 6030b8 <_GLOBAL_OFFSET_TABLE_+0xb8>
  400d86:	68 14 00 00 00       	pushq  $0x14
  400d8b:	e9 a0 fe ff ff       	jmpq   400c30 <_init+0x20>

0000000000400d90 <__isoc99_sscanf@plt>:
  400d90:	ff 25 2a 23 20 00    	jmpq   *0x20232a(%rip)        # 6030c0 <_GLOBAL_OFFSET_TABLE_+0xc0>
  400d96:	68 15 00 00 00       	pushq  $0x15
  400d9b:	e9 90 fe ff ff       	jmpq   400c30 <_init+0x20>

0000000000400da0 <bcopy@plt>:
  400da0:	ff 25 22 23 20 00    	jmpq   *0x202322(%rip)        # 6030c8 <_GLOBAL_OFFSET_TABLE_+0xc8>
  400da6:	68 16 00 00 00       	pushq  $0x16
  400dab:	e9 80 fe ff ff       	jmpq   400c30 <_init+0x20>

0000000000400db0 <cuserid@plt>:
  400db0:	ff 25 1a 23 20 00    	jmpq   *0x20231a(%rip)        # 6030d0 <_GLOBAL_OFFSET_TABLE_+0xd0>
  400db6:	68 17 00 00 00       	pushq  $0x17
  400dbb:	e9 70 fe ff ff       	jmpq   400c30 <_init+0x20>

0000000000400dc0 <fopen@plt>:
  400dc0:	ff 25 12 23 20 00    	jmpq   *0x202312(%rip)        # 6030d8 <_GLOBAL_OFFSET_TABLE_+0xd8>
  400dc6:	68 18 00 00 00       	pushq  $0x18
  400dcb:	e9 60 fe ff ff       	jmpq   400c30 <_init+0x20>

0000000000400dd0 <bzero@plt>:
  400dd0:	ff 25 0a 23 20 00    	jmpq   *0x20230a(%rip)        # 6030e0 <_GLOBAL_OFFSET_TABLE_+0xe0>
  400dd6:	68 19 00 00 00       	pushq  $0x19
  400ddb:	e9 50 fe ff ff       	jmpq   400c30 <_init+0x20>

0000000000400de0 <atoi@plt>:
  400de0:	ff 25 02 23 20 00    	jmpq   *0x202302(%rip)        # 6030e8 <_GLOBAL_OFFSET_TABLE_+0xe8>
  400de6:	68 1a 00 00 00       	pushq  $0x1a
  400deb:	e9 40 fe ff ff       	jmpq   400c30 <_init+0x20>

0000000000400df0 <strcat@plt>:
  400df0:	ff 25 fa 22 20 00    	jmpq   *0x2022fa(%rip)        # 6030f0 <_GLOBAL_OFFSET_TABLE_+0xf0>
  400df6:	68 1b 00 00 00       	pushq  $0x1b
  400dfb:	e9 30 fe ff ff       	jmpq   400c30 <_init+0x20>

0000000000400e00 <sprintf@plt>:
  400e00:	ff 25 f2 22 20 00    	jmpq   *0x2022f2(%rip)        # 6030f8 <_GLOBAL_OFFSET_TABLE_+0xf8>
  400e06:	68 1c 00 00 00       	pushq  $0x1c
  400e0b:	e9 20 fe ff ff       	jmpq   400c30 <_init+0x20>

0000000000400e10 <exit@plt>:
  400e10:	ff 25 ea 22 20 00    	jmpq   *0x2022ea(%rip)        # 603100 <_GLOBAL_OFFSET_TABLE_+0x100>
  400e16:	68 1d 00 00 00       	pushq  $0x1d
  400e1b:	e9 10 fe ff ff       	jmpq   400c30 <_init+0x20>

0000000000400e20 <connect@plt>:
  400e20:	ff 25 e2 22 20 00    	jmpq   *0x2022e2(%rip)        # 603108 <_GLOBAL_OFFSET_TABLE_+0x108>
  400e26:	68 1e 00 00 00       	pushq  $0x1e
  400e2b:	e9 00 fe ff ff       	jmpq   400c30 <_init+0x20>

0000000000400e30 <fwrite@plt>:
  400e30:	ff 25 da 22 20 00    	jmpq   *0x2022da(%rip)        # 603110 <_GLOBAL_OFFSET_TABLE_+0x110>
  400e36:	68 1f 00 00 00       	pushq  $0x1f
  400e3b:	e9 f0 fd ff ff       	jmpq   400c30 <_init+0x20>

0000000000400e40 <sleep@plt>:
  400e40:	ff 25 d2 22 20 00    	jmpq   *0x2022d2(%rip)        # 603118 <_GLOBAL_OFFSET_TABLE_+0x118>
  400e46:	68 20 00 00 00       	pushq  $0x20
  400e4b:	e9 e0 fd ff ff       	jmpq   400c30 <_init+0x20>

0000000000400e50 <__ctype_b_loc@plt>:
  400e50:	ff 25 ca 22 20 00    	jmpq   *0x2022ca(%rip)        # 603120 <_GLOBAL_OFFSET_TABLE_+0x120>
  400e56:	68 21 00 00 00       	pushq  $0x21
  400e5b:	e9 d0 fd ff ff       	jmpq   400c30 <_init+0x20>

0000000000400e60 <socket@plt>:
  400e60:	ff 25 c2 22 20 00    	jmpq   *0x2022c2(%rip)        # 603128 <_GLOBAL_OFFSET_TABLE_+0x128>
  400e66:	68 22 00 00 00       	pushq  $0x22
  400e6b:	e9 c0 fd ff ff       	jmpq   400c30 <_init+0x20>

Disassembly of section .text:

0000000000400e70 <_start>:
  400e70:	31 ed                	xor    %ebp,%ebp
  400e72:	49 89 d1             	mov    %rdx,%r9
  400e75:	5e                   	pop    %rsi
  400e76:	48 89 e2             	mov    %rsp,%rdx
  400e79:	48 83 e4 f0          	and    $0xfffffffffffffff0,%rsp
  400e7d:	50                   	push   %rax
  400e7e:	54                   	push   %rsp
  400e7f:	49 c7 c0 60 22 40 00 	mov    $0x402260,%r8
  400e86:	48 c7 c1 f0 21 40 00 	mov    $0x4021f0,%rcx
  400e8d:	48 c7 c7 66 0f 40 00 	mov    $0x400f66,%rdi
  400e94:	ff 15 56 21 20 00    	callq  *0x202156(%rip)        # 602ff0 <_DYNAMIC+0x1d0>
  400e9a:	f4                   	hlt    
  400e9b:	0f 1f 44 00 00       	nopl   0x0(%rax,%rax,1)

0000000000400ea0 <deregister_tm_clones>:
  400ea0:	b8 0f 38 60 00       	mov    $0x60380f,%eax
  400ea5:	55                   	push   %rbp
  400ea6:	48 2d 08 38 60 00    	sub    $0x603808,%rax
  400eac:	48 83 f8 0e          	cmp    $0xe,%rax
  400eb0:	48 89 e5             	mov    %rsp,%rbp
  400eb3:	76 1b                	jbe    400ed0 <deregister_tm_clones+0x30>
  400eb5:	b8 00 00 00 00       	mov    $0x0,%eax
  400eba:	48 85 c0             	test   %rax,%rax
  400ebd:	74 11                	je     400ed0 <deregister_tm_clones+0x30>
  400ebf:	5d                   	pop    %rbp
  400ec0:	bf 08 38 60 00       	mov    $0x603808,%edi
  400ec5:	ff e0                	jmpq   *%rax
  400ec7:	66 0f 1f 84 00 00 00 	nopw   0x0(%rax,%rax,1)
  400ece:	00 00 
  400ed0:	5d                   	pop    %rbp
  400ed1:	c3                   	retq   
  400ed2:	0f 1f 40 00          	nopl   0x0(%rax)
  400ed6:	66 2e 0f 1f 84 00 00 	nopw   %cs:0x0(%rax,%rax,1)
  400edd:	00 00 00 

0000000000400ee0 <register_tm_clones>:
  400ee0:	be 08 38 60 00       	mov    $0x603808,%esi
  400ee5:	55                   	push   %rbp
  400ee6:	48 81 ee 08 38 60 00 	sub    $0x603808,%rsi
  400eed:	48 c1 fe 03          	sar    $0x3,%rsi
  400ef1:	48 89 e5             	mov    %rsp,%rbp
  400ef4:	48 89 f0             	mov    %rsi,%rax
  400ef7:	48 c1 e8 3f          	shr    $0x3f,%rax
  400efb:	48 01 c6             	add    %rax,%rsi
  400efe:	48 d1 fe             	sar    %rsi
  400f01:	74 15                	je     400f18 <register_tm_clones+0x38>
  400f03:	b8 00 00 00 00       	mov    $0x0,%eax
  400f08:	48 85 c0             	test   %rax,%rax
  400f0b:	74 0b                	je     400f18 <register_tm_clones+0x38>
  400f0d:	5d                   	pop    %rbp
  400f0e:	bf 08 38 60 00       	mov    $0x603808,%edi
  400f13:	ff e0                	jmpq   *%rax
  400f15:	0f 1f 00             	nopl   (%rax)
  400f18:	5d                   	pop    %rbp
  400f19:	c3                   	retq   
  400f1a:	66 0f 1f 44 00 00    	nopw   0x0(%rax,%rax,1)

0000000000400f20 <__do_global_dtors_aux>:
  400f20:	80 3d 11 29 20 00 00 	cmpb   $0x0,0x202911(%rip)        # 603838 <completed.6963>
  400f27:	75 11                	jne    400f3a <__do_global_dtors_aux+0x1a>
  400f29:	55                   	push   %rbp
  400f2a:	48 89 e5             	mov    %rsp,%rbp
  400f2d:	e8 6e ff ff ff       	callq  400ea0 <deregister_tm_clones>
  400f32:	5d                   	pop    %rbp
  400f33:	c6 05 fe 28 20 00 01 	movb   $0x1,0x2028fe(%rip)        # 603838 <completed.6963>
  400f3a:	f3 c3                	repz retq 
  400f3c:	0f 1f 40 00          	nopl   0x0(%rax)

0000000000400f40 <frame_dummy>:
  400f40:	bf 18 2e 60 00       	mov    $0x602e18,%edi
  400f45:	48 83 3f 00          	cmpq   $0x0,(%rdi)
  400f49:	75 05                	jne    400f50 <frame_dummy+0x10>
  400f4b:	eb 93                	jmp    400ee0 <register_tm_clones>
  400f4d:	0f 1f 00             	nopl   (%rax)
  400f50:	b8 00 00 00 00       	mov    $0x0,%eax
  400f55:	48 85 c0             	test   %rax,%rax
  400f58:	74 f1                	je     400f4b <frame_dummy+0xb>
  400f5a:	55                   	push   %rbp
  400f5b:	48 89 e5             	mov    %rsp,%rbp
  400f5e:	ff d0                	callq  *%rax
  400f60:	5d                   	pop    %rbp
  400f61:	e9 7a ff ff ff       	jmpq   400ee0 <register_tm_clones>

0000000000400f66 <main>:
  400f66:	55                   	push   %rbp
  400f67:	48 89 e5             	mov    %rsp,%rbp
  400f6a:	48 83 ec 20          	sub    $0x20,%rsp
  400f6e:	89 7d ec             	mov    %edi,-0x14(%rbp)
  400f71:	48 89 75 e0          	mov    %rsi,-0x20(%rbp)
  400f75:	83 7d ec 01          	cmpl   $0x1,-0x14(%rbp)
  400f79:	75 13                	jne    400f8e <main+0x28>
  400f7b:	48 8b 05 ae 28 20 00 	mov    0x2028ae(%rip),%rax        # 603830 <stdin@@GLIBC_2.2.5>
  400f82:	48 89 05 b7 28 20 00 	mov    %rax,0x2028b7(%rip)        # 603840 <infile>
  400f89:	e9 88 00 00 00       	jmpq   401016 <main+0xb0>
  400f8e:	83 7d ec 02          	cmpl   $0x2,-0x14(%rbp)
  400f92:	75 5d                	jne    400ff1 <main+0x8b>
  400f94:	48 8b 45 e0          	mov    -0x20(%rbp),%rax
  400f98:	48 83 c0 08          	add    $0x8,%rax
  400f9c:	48 8b 00             	mov    (%rax),%rax
  400f9f:	48 8d 35 d2 12 00 00 	lea    0x12d2(%rip),%rsi        # 402278 <_IO_stdin_used+0x8>
  400fa6:	48 89 c7             	mov    %rax,%rdi
  400fa9:	e8 12 fe ff ff       	callq  400dc0 <fopen@plt>
  400fae:	48 89 05 8b 28 20 00 	mov    %rax,0x20288b(%rip)        # 603840 <infile>
  400fb5:	48 8b 05 84 28 20 00 	mov    0x202884(%rip),%rax        # 603840 <infile>
  400fbc:	48 85 c0             	test   %rax,%rax
  400fbf:	75 55                	jne    401016 <main+0xb0>
  400fc1:	48 8b 45 e0          	mov    -0x20(%rbp),%rax
  400fc5:	48 83 c0 08          	add    $0x8,%rax
  400fc9:	48 8b 10             	mov    (%rax),%rdx
  400fcc:	48 8b 45 e0          	mov    -0x20(%rbp),%rax
  400fd0:	48 8b 00             	mov    (%rax),%rax
  400fd3:	48 89 c6             	mov    %rax,%rsi
  400fd6:	48 8d 3d 9d 12 00 00 	lea    0x129d(%rip),%rdi        # 40227a <_IO_stdin_used+0xa>
  400fdd:	b8 00 00 00 00       	mov    $0x0,%eax
  400fe2:	e8 e9 fc ff ff       	callq  400cd0 <printf@plt>
  400fe7:	bf 08 00 00 00       	mov    $0x8,%edi
  400fec:	e8 1f fe ff ff       	callq  400e10 <exit@plt>
  400ff1:	48 8b 45 e0          	mov    -0x20(%rbp),%rax
  400ff5:	48 8b 00             	mov    (%rax),%rax
  400ff8:	48 89 c6             	mov    %rax,%rsi
  400ffb:	48 8d 3d 95 12 00 00 	lea    0x1295(%rip),%rdi        # 402297 <_IO_stdin_used+0x27>
  401002:	b8 00 00 00 00       	mov    $0x0,%eax
  401007:	e8 c4 fc ff ff       	callq  400cd0 <printf@plt>
  40100c:	bf 08 00 00 00       	mov    $0x8,%edi
  401011:	e8 fa fd ff ff       	callq  400e10 <exit@plt>
  401016:	e8 24 08 00 00       	callq  40183f <initialize_bomb>
  40101b:	48 8d 3d 96 12 00 00 	lea    0x1296(%rip),%rdi        # 4022b8 <_IO_stdin_used+0x48>
  401022:	e8 49 fc ff ff       	callq  400c70 <puts@plt>
  401027:	48 8d 3d ca 12 00 00 	lea    0x12ca(%rip),%rdi        # 4022f8 <_IO_stdin_used+0x88>
  40102e:	e8 3d fc ff ff       	callq  400c70 <puts@plt>
  401033:	e8 ef 08 00 00       	callq  401927 <read_line>
  401038:	48 89 45 f8          	mov    %rax,-0x8(%rbp)
  40103c:	48 8b 45 f8          	mov    -0x8(%rbp),%rax
  401040:	48 89 c7             	mov    %rax,%rdi
  401043:	e8 ca 00 00 00       	callq  401112 <phase_1>
  401048:	e8 f1 10 00 00       	callq  40213e <phase_defused>
  40104d:	48 8d 3d d4 12 00 00 	lea    0x12d4(%rip),%rdi        # 402328 <_IO_stdin_used+0xb8>
  401054:	e8 17 fc ff ff       	callq  400c70 <puts@plt>
  401059:	e8 c9 08 00 00       	callq  401927 <read_line>
  40105e:	48 89 45 f8          	mov    %rax,-0x8(%rbp)
  401062:	48 8b 45 f8          	mov    -0x8(%rbp),%rax
  401066:	48 89 c7             	mov    %rax,%rdi
  401069:	e8 cf 00 00 00       	callq  40113d <phase_2>
  40106e:	e8 cb 10 00 00       	callq  40213e <phase_defused>
  401073:	48 8d 3d d7 12 00 00 	lea    0x12d7(%rip),%rdi        # 402351 <_IO_stdin_used+0xe1>
  40107a:	e8 f1 fb ff ff       	callq  400c70 <puts@plt>
  40107f:	e8 a3 08 00 00       	callq  401927 <read_line>
  401084:	48 89 45 f8          	mov    %rax,-0x8(%rbp)
  401088:	48 8b 45 f8          	mov    -0x8(%rbp),%rax
  40108c:	48 89 c7             	mov    %rax,%rdi
  40108f:	e8 1a 01 00 00       	callq  4011ae <phase_3>
  401094:	e8 a5 10 00 00       	callq  40213e <phase_defused>
  401099:	48 8d 3d cf 12 00 00 	lea    0x12cf(%rip),%rdi        # 40236f <_IO_stdin_used+0xff>
  4010a0:	e8 cb fb ff ff       	callq  400c70 <puts@plt>
  4010a5:	e8 7d 08 00 00       	callq  401927 <read_line>
  4010aa:	48 89 45 f8          	mov    %rax,-0x8(%rbp)
  4010ae:	48 8b 45 f8          	mov    -0x8(%rbp),%rax
  4010b2:	48 89 c7             	mov    %rax,%rdi
  4010b5:	e8 ef 01 00 00       	callq  4012a9 <phase_4>
  4010ba:	e8 7f 10 00 00       	callq  40213e <phase_defused>
  4010bf:	48 8d 3d ba 12 00 00 	lea    0x12ba(%rip),%rdi        # 402380 <_IO_stdin_used+0x110>
  4010c6:	e8 a5 fb ff ff       	callq  400c70 <puts@plt>
  4010cb:	e8 57 08 00 00       	callq  401927 <read_line>
  4010d0:	48 89 45 f8          	mov    %rax,-0x8(%rbp)
  4010d4:	48 8b 45 f8          	mov    -0x8(%rbp),%rax
  4010d8:	48 89 c7             	mov    %rax,%rdi
  4010db:	e8 24 02 00 00       	callq  401304 <phase_5>
  4010e0:	e8 59 10 00 00       	callq  40213e <phase_defused>
  4010e5:	48 8d 3d b8 12 00 00 	lea    0x12b8(%rip),%rdi        # 4023a4 <_IO_stdin_used+0x134>
  4010ec:	e8 7f fb ff ff       	callq  400c70 <puts@plt>
  4010f1:	e8 31 08 00 00       	callq  401927 <read_line>
  4010f6:	48 89 45 f8          	mov    %rax,-0x8(%rbp)
  4010fa:	48 8b 45 f8          	mov    -0x8(%rbp),%rax
  4010fe:	48 89 c7             	mov    %rax,%rdi
  401101:	e8 47 03 00 00       	callq  40144d <phase_6>
  401106:	e8 33 10 00 00       	callq  40213e <phase_defused>
  40110b:	b8 00 00 00 00       	mov    $0x0,%eax
  401110:	c9                   	leaveq 
  401111:	c3                   	retq   

0000000000401112 <phase_1>:
  401112:	55                   	push   %rbp
  401113:	48 89 e5             	mov    %rsp,%rbp
  401116:	48 83 ec 10          	sub    $0x10,%rsp
  40111a:	48 89 7d f8          	mov    %rdi,-0x8(%rbp)
  40111e:	48 8b 45 f8          	mov    -0x8(%rbp),%rax
  401122:	48 8d 35 9f 12 00 00 	lea    0x129f(%rip),%rsi        # 4023c8 <_IO_stdin_used+0x158>
  401129:	48 89 c7             	mov    %rax,%rdi
  40112c:	e8 98 05 00 00       	callq  4016c9 <strings_not_equal>
  401131:	85 c0                	test   %eax,%eax
  401133:	74 05                	je     40113a <phase_1+0x28>
  401135:	e8 c8 0f 00 00       	callq  402102 <explode_bomb>
  40113a:	90                   	nop
  40113b:	c9                   	leaveq 
  40113c:	c3                   	retq   

000000000040113d <phase_2>:
  40113d:	55                   	push   %rbp
  40113e:	48 89 e5             	mov    %rsp,%rbp
  401141:	48 83 ec 30          	sub    $0x30,%rsp
  401145:	48 89 7d d8          	mov    %rdi,-0x28(%rbp)
  401149:	c7 45 f8 00 00 00 00 	movl   $0x0,-0x8(%rbp)
  401150:	48 8d 55 e0          	lea    -0x20(%rbp),%rdx
  401154:	48 8b 45 d8          	mov    -0x28(%rbp),%rax
  401158:	48 89 d6             	mov    %rdx,%rsi
  40115b:	48 89 c7             	mov    %rax,%rdi
  40115e:	e8 c9 04 00 00       	callq  40162c <read_six_numbers>
  401163:	c7 45 fc 00 00 00 00 	movl   $0x0,-0x4(%rbp)
  40116a:	eb 2e                	jmp    40119a <phase_2+0x5d>
  40116c:	8b 45 fc             	mov    -0x4(%rbp),%eax
  40116f:	48 98                	cltq   
  401171:	8b 54 85 e0          	mov    -0x20(%rbp,%rax,4),%edx
  401175:	8b 45 fc             	mov    -0x4(%rbp),%eax
  401178:	83 c0 03             	add    $0x3,%eax
  40117b:	48 98                	cltq   
  40117d:	8b 44 85 e0          	mov    -0x20(%rbp,%rax,4),%eax
  401181:	39 c2                	cmp    %eax,%edx
  401183:	74 05                	je     40118a <phase_2+0x4d>
  401185:	e8 78 0f 00 00       	callq  402102 <explode_bomb>
  40118a:	8b 45 fc             	mov    -0x4(%rbp),%eax
  40118d:	48 98                	cltq   
  40118f:	8b 44 85 e0          	mov    -0x20(%rbp,%rax,4),%eax
  401193:	01 45 f8             	add    %eax,-0x8(%rbp)
  401196:	83 45 fc 01          	addl   $0x1,-0x4(%rbp)
  40119a:	83 7d fc 02          	cmpl   $0x2,-0x4(%rbp)
  40119e:	7e cc                	jle    40116c <phase_2+0x2f>
  4011a0:	83 7d f8 00          	cmpl   $0x0,-0x8(%rbp)
  4011a4:	75 05                	jne    4011ab <phase_2+0x6e>
  4011a6:	e8 57 0f 00 00       	callq  402102 <explode_bomb>
  4011ab:	90                   	nop
  4011ac:	c9                   	leaveq 
  4011ad:	c3                   	retq   

00000000004011ae <phase_3>:
  4011ae:	55                   	push   %rbp
  4011af:	48 89 e5             	mov    %rsp,%rbp
  4011b2:	48 83 ec 20          	sub    $0x20,%rsp
  4011b6:	48 89 7d e8          	mov    %rdi,-0x18(%rbp)
  4011ba:	c7 45 fc 00 00 00 00 	movl   $0x0,-0x4(%rbp)
  4011c1:	c7 45 f8 00 00 00 00 	movl   $0x0,-0x8(%rbp)
  4011c8:	48 8d 4d f0          	lea    -0x10(%rbp),%rcx
  4011cc:	48 8d 55 f4          	lea    -0xc(%rbp),%rdx
  4011d0:	48 8b 45 e8          	mov    -0x18(%rbp),%rax
  4011d4:	48 8d 35 1e 12 00 00 	lea    0x121e(%rip),%rsi        # 4023f9 <_IO_stdin_used+0x189>
  4011db:	48 89 c7             	mov    %rax,%rdi
  4011de:	b8 00 00 00 00       	mov    $0x0,%eax
  4011e3:	e8 a8 fb ff ff       	callq  400d90 <__isoc99_sscanf@plt>
  4011e8:	89 45 f8             	mov    %eax,-0x8(%rbp)
  4011eb:	83 7d f8 01          	cmpl   $0x1,-0x8(%rbp)
  4011ef:	7f 05                	jg     4011f6 <phase_3+0x48>
  4011f1:	e8 0c 0f 00 00       	callq  402102 <explode_bomb>
  4011f6:	8b 45 f4             	mov    -0xc(%rbp),%eax
  4011f9:	83 f8 07             	cmp    $0x7,%eax
  4011fc:	77 6b                	ja     401269 <phase_3+0xbb>
  4011fe:	89 c0                	mov    %eax,%eax
  401200:	48 8d 14 85 00 00 00 	lea    0x0(,%rax,4),%rdx
  401207:	00 
  401208:	48 8d 05 f1 11 00 00 	lea    0x11f1(%rip),%rax        # 402400 <_IO_stdin_used+0x190>
  40120f:	8b 04 02             	mov    (%rdx,%rax,1),%eax
  401212:	48 63 d0             	movslq %eax,%rdx
  401215:	48 8d 05 e4 11 00 00 	lea    0x11e4(%rip),%rax        # 402400 <_IO_stdin_used+0x190>
  40121c:	48 01 d0             	add    %rdx,%rax
  40121f:	ff e0                	jmpq   *%rax
  401221:	c7 45 fc 95 01 00 00 	movl   $0x195,-0x4(%rbp)
  401228:	eb 44                	jmp    40126e <phase_3+0xc0>
  40122a:	c7 45 fc 41 02 00 00 	movl   $0x241,-0x4(%rbp)
  401231:	eb 3b                	jmp    40126e <phase_3+0xc0>
  401233:	c7 45 fc e3 02 00 00 	movl   $0x2e3,-0x4(%rbp)
  40123a:	eb 32                	jmp    40126e <phase_3+0xc0>
  40123c:	c7 45 fc b4 02 00 00 	movl   $0x2b4,-0x4(%rbp)
  401243:	eb 29                	jmp    40126e <phase_3+0xc0>
  401245:	c7 45 fc ea 01 00 00 	movl   $0x1ea,-0x4(%rbp)
  40124c:	eb 20                	jmp    40126e <phase_3+0xc0>
  40124e:	c7 45 fc fe 00 00 00 	movl   $0xfe,-0x4(%rbp)
  401255:	eb 17                	jmp    40126e <phase_3+0xc0>
  401257:	c7 45 fc 75 00 00 00 	movl   $0x75,-0x4(%rbp)
  40125e:	eb 0e                	jmp    40126e <phase_3+0xc0>
  401260:	c7 45 fc 69 03 00 00 	movl   $0x369,-0x4(%rbp)
  401267:	eb 05                	jmp    40126e <phase_3+0xc0>
  401269:	e8 94 0e 00 00       	callq  402102 <explode_bomb>
  40126e:	8b 45 f0             	mov    -0x10(%rbp),%eax
  401271:	39 45 fc             	cmp    %eax,-0x4(%rbp)
  401274:	74 05                	je     40127b <phase_3+0xcd>
  401276:	e8 87 0e 00 00       	callq  402102 <explode_bomb>
  40127b:	90                   	nop
  40127c:	c9                   	leaveq 
  40127d:	c3                   	retq   

000000000040127e <func4>:
  40127e:	55                   	push   %rbp
  40127f:	48 89 e5             	mov    %rsp,%rbp
  401282:	48 83 ec 10          	sub    $0x10,%rsp
  401286:	89 7d fc             	mov    %edi,-0x4(%rbp)
  401289:	83 7d fc 01          	cmpl   $0x1,-0x4(%rbp)
  40128d:	7f 07                	jg     401296 <func4+0x18>
  40128f:	b8 01 00 00 00       	mov    $0x1,%eax
  401294:	eb 11                	jmp    4012a7 <func4+0x29>
  401296:	8b 45 fc             	mov    -0x4(%rbp),%eax
  401299:	83 e8 01             	sub    $0x1,%eax
  40129c:	89 c7                	mov    %eax,%edi
  40129e:	e8 db ff ff ff       	callq  40127e <func4>
  4012a3:	0f af 45 fc          	imul   -0x4(%rbp),%eax
  4012a7:	c9                   	leaveq 
  4012a8:	c3                   	retq   

00000000004012a9 <phase_4>:
  4012a9:	55                   	push   %rbp
  4012aa:	48 89 e5             	mov    %rsp,%rbp
  4012ad:	48 83 ec 20          	sub    $0x20,%rsp
  4012b1:	48 89 7d e8          	mov    %rdi,-0x18(%rbp)
  4012b5:	48 8d 55 f4          	lea    -0xc(%rbp),%rdx
  4012b9:	48 8b 45 e8          	mov    -0x18(%rbp),%rax
  4012bd:	48 8d 35 5c 11 00 00 	lea    0x115c(%rip),%rsi        # 402420 <_IO_stdin_used+0x1b0>
  4012c4:	48 89 c7             	mov    %rax,%rdi
  4012c7:	b8 00 00 00 00       	mov    $0x0,%eax
  4012cc:	e8 bf fa ff ff       	callq  400d90 <__isoc99_sscanf@plt>
  4012d1:	89 45 fc             	mov    %eax,-0x4(%rbp)
  4012d4:	83 7d fc 01          	cmpl   $0x1,-0x4(%rbp)
  4012d8:	75 07                	jne    4012e1 <phase_4+0x38>
  4012da:	8b 45 f4             	mov    -0xc(%rbp),%eax
  4012dd:	85 c0                	test   %eax,%eax
  4012df:	7f 05                	jg     4012e6 <phase_4+0x3d>
  4012e1:	e8 1c 0e 00 00       	callq  402102 <explode_bomb>
  4012e6:	8b 45 f4             	mov    -0xc(%rbp),%eax
  4012e9:	89 c7                	mov    %eax,%edi
  4012eb:	e8 8e ff ff ff       	callq  40127e <func4>
  4012f0:	89 45 f8             	mov    %eax,-0x8(%rbp)
  4012f3:	81 7d f8 80 9d 00 00 	cmpl   $0x9d80,-0x8(%rbp)
  4012fa:	74 05                	je     401301 <phase_4+0x58>
  4012fc:	e8 01 0e 00 00       	callq  402102 <explode_bomb>
  401301:	90                   	nop
  401302:	c9                   	leaveq 
  401303:	c3                   	retq   

0000000000401304 <phase_5>:
  401304:	55                   	push   %rbp
  401305:	48 89 e5             	mov    %rsp,%rbp
  401308:	48 83 ec 20          	sub    $0x20,%rsp
  40130c:	48 89 7d e8          	mov    %rdi,-0x18(%rbp)
  401310:	48 8b 45 e8          	mov    -0x18(%rbp),%rax
  401314:	48 89 c7             	mov    %rax,%rdi
  401317:	e8 7b 03 00 00       	callq  401697 <string_length>
  40131c:	89 45 f8             	mov    %eax,-0x8(%rbp)
  40131f:	83 7d f8 06          	cmpl   $0x6,-0x8(%rbp)
  401323:	74 05                	je     40132a <phase_5+0x26>
  401325:	e8 d8 0d 00 00       	callq  402102 <explode_bomb>
  40132a:	c7 45 fc 00 00 00 00 	movl   $0x0,-0x4(%rbp)
  401331:	eb 31                	jmp    401364 <phase_5+0x60>
  401333:	8b 45 fc             	mov    -0x4(%rbp),%eax
  401336:	48 63 d0             	movslq %eax,%rdx
  401339:	48 8b 45 e8          	mov    -0x18(%rbp),%rax
  40133d:	48 01 d0             	add    %rdx,%rax
  401340:	0f b6 00             	movzbl (%rax),%eax
  401343:	0f be c0             	movsbl %al,%eax
  401346:	83 e0 0f             	and    $0xf,%eax
  401349:	48 63 d0             	movslq %eax,%rdx
  40134c:	48 8d 05 3d 23 20 00 	lea    0x20233d(%rip),%rax        # 603690 <array.2953>
  401353:	0f b6 14 02          	movzbl (%rdx,%rax,1),%edx
  401357:	8b 45 fc             	mov    -0x4(%rbp),%eax
  40135a:	48 98                	cltq   
  40135c:	88 54 05 f1          	mov    %dl,-0xf(%rbp,%rax,1)
  401360:	83 45 fc 01          	addl   $0x1,-0x4(%rbp)
  401364:	83 7d fc 05          	cmpl   $0x5,-0x4(%rbp)
  401368:	7e c9                	jle    401333 <phase_5+0x2f>
  40136a:	c6 45 f7 00          	movb   $0x0,-0x9(%rbp)
  40136e:	48 8d 45 f1          	lea    -0xf(%rbp),%rax
  401372:	48 8d 35 aa 10 00 00 	lea    0x10aa(%rip),%rsi        # 402423 <_IO_stdin_used+0x1b3>
  401379:	48 89 c7             	mov    %rax,%rdi
  40137c:	e8 48 03 00 00       	callq  4016c9 <strings_not_equal>
  401381:	85 c0                	test   %eax,%eax
  401383:	74 05                	je     40138a <phase_5+0x86>
  401385:	e8 78 0d 00 00       	callq  402102 <explode_bomb>
  40138a:	90                   	nop
  40138b:	c9                   	leaveq 
  40138c:	c3                   	retq   

000000000040138d <fun6>:
  40138d:	55                   	push   %rbp
  40138e:	48 89 e5             	mov    %rsp,%rbp
  401391:	48 89 7d d8          	mov    %rdi,-0x28(%rbp)
  401395:	48 8b 45 d8          	mov    -0x28(%rbp),%rax
  401399:	48 89 45 f8          	mov    %rax,-0x8(%rbp)
  40139d:	48 8b 45 d8          	mov    -0x28(%rbp),%rax
  4013a1:	48 89 45 f8          	mov    %rax,-0x8(%rbp)
  4013a5:	48 8b 45 d8          	mov    -0x28(%rbp),%rax
  4013a9:	48 8b 40 08          	mov    0x8(%rax),%rax
  4013ad:	48 89 45 f0          	mov    %rax,-0x10(%rbp)
  4013b1:	48 8b 45 f8          	mov    -0x8(%rbp),%rax
  4013b5:	48 c7 40 08 00 00 00 	movq   $0x0,0x8(%rax)
  4013bc:	00 
  4013bd:	eb 7d                	jmp    40143c <fun6+0xaf>
  4013bf:	48 8b 45 f8          	mov    -0x8(%rbp),%rax
  4013c3:	48 89 45 e0          	mov    %rax,-0x20(%rbp)
  4013c7:	48 8b 45 f8          	mov    -0x8(%rbp),%rax
  4013cb:	48 89 45 e8          	mov    %rax,-0x18(%rbp)
  4013cf:	eb 14                	jmp    4013e5 <fun6+0x58>
  4013d1:	48 8b 45 e0          	mov    -0x20(%rbp),%rax
  4013d5:	48 89 45 e8          	mov    %rax,-0x18(%rbp)
  4013d9:	48 8b 45 e0          	mov    -0x20(%rbp),%rax
  4013dd:	48 8b 40 08          	mov    0x8(%rax),%rax
  4013e1:	48 89 45 e0          	mov    %rax,-0x20(%rbp)
  4013e5:	48 83 7d e0 00       	cmpq   $0x0,-0x20(%rbp)
  4013ea:	74 10                	je     4013fc <fun6+0x6f>
  4013ec:	48 8b 45 e0          	mov    -0x20(%rbp),%rax
  4013f0:	8b 10                	mov    (%rax),%edx
  4013f2:	48 8b 45 f0          	mov    -0x10(%rbp),%rax
  4013f6:	8b 00                	mov    (%rax),%eax
  4013f8:	39 c2                	cmp    %eax,%edx
  4013fa:	7f d5                	jg     4013d1 <fun6+0x44>
  4013fc:	48 8b 45 e8          	mov    -0x18(%rbp),%rax
  401400:	48 3b 45 e0          	cmp    -0x20(%rbp),%rax
  401404:	74 0e                	je     401414 <fun6+0x87>
  401406:	48 8b 45 e8          	mov    -0x18(%rbp),%rax
  40140a:	48 8b 55 f0          	mov    -0x10(%rbp),%rdx
  40140e:	48 89 50 08          	mov    %rdx,0x8(%rax)
  401412:	eb 08                	jmp    40141c <fun6+0x8f>
  401414:	48 8b 45 f0          	mov    -0x10(%rbp),%rax
  401418:	48 89 45 f8          	mov    %rax,-0x8(%rbp)
  40141c:	48 8b 45 f0          	mov    -0x10(%rbp),%rax
  401420:	48 8b 40 08          	mov    0x8(%rax),%rax
  401424:	48 89 45 e8          	mov    %rax,-0x18(%rbp)
  401428:	48 8b 45 f0          	mov    -0x10(%rbp),%rax
  40142c:	48 8b 55 e0          	mov    -0x20(%rbp),%rdx
  401430:	48 89 50 08          	mov    %rdx,0x8(%rax)
  401434:	48 8b 45 e8          	mov    -0x18(%rbp),%rax
  401438:	48 89 45 f0          	mov    %rax,-0x10(%rbp)
  40143c:	48 83 7d f0 00       	cmpq   $0x0,-0x10(%rbp)
  401441:	0f 85 78 ff ff ff    	jne    4013bf <fun6+0x32>
  401447:	48 8b 45 f8          	mov    -0x8(%rbp),%rax
  40144b:	5d                   	pop    %rbp
  40144c:	c3                   	retq   

000000000040144d <phase_6>:
  40144d:	55                   	push   %rbp
  40144e:	48 89 e5             	mov    %rsp,%rbp
  401451:	48 83 ec 30          	sub    $0x30,%rsp
  401455:	48 89 7d d8          	mov    %rdi,-0x28(%rbp)
  401459:	48 8d 05 c0 22 20 00 	lea    0x2022c0(%rip),%rax        # 603720 <node0>
  401460:	48 89 45 e8          	mov    %rax,-0x18(%rbp)
  401464:	48 8b 45 d8          	mov    -0x28(%rbp),%rax
  401468:	48 89 c7             	mov    %rax,%rdi
  40146b:	e8 70 f9 ff ff       	callq  400de0 <atoi@plt>
  401470:	89 c2                	mov    %eax,%edx
  401472:	48 8b 45 e8          	mov    -0x18(%rbp),%rax
  401476:	89 10                	mov    %edx,(%rax)
  401478:	48 8b 45 e8          	mov    -0x18(%rbp),%rax
  40147c:	48 89 c7             	mov    %rax,%rdi
  40147f:	e8 09 ff ff ff       	callq  40138d <fun6>
  401484:	48 89 45 e8          	mov    %rax,-0x18(%rbp)
  401488:	48 8b 45 e8          	mov    -0x18(%rbp),%rax
  40148c:	48 89 45 f0          	mov    %rax,-0x10(%rbp)
  401490:	c7 45 fc 01 00 00 00 	movl   $0x1,-0x4(%rbp)
  401497:	eb 10                	jmp    4014a9 <phase_6+0x5c>
  401499:	48 8b 45 f0          	mov    -0x10(%rbp),%rax
  40149d:	48 8b 40 08          	mov    0x8(%rax),%rax
  4014a1:	48 89 45 f0          	mov    %rax,-0x10(%rbp)
  4014a5:	83 45 fc 01          	addl   $0x1,-0x4(%rbp)
  4014a9:	83 7d fc 02          	cmpl   $0x2,-0x4(%rbp)
  4014ad:	7e ea                	jle    401499 <phase_6+0x4c>
  4014af:	48 8b 45 f0          	mov    -0x10(%rbp),%rax
  4014b3:	8b 10                	mov    (%rax),%edx
  4014b5:	8b 05 65 22 20 00    	mov    0x202265(%rip),%eax        # 603720 <node0>
  4014bb:	39 c2                	cmp    %eax,%edx
  4014bd:	74 05                	je     4014c4 <phase_6+0x77>
  4014bf:	e8 3e 0c 00 00       	callq  402102 <explode_bomb>
  4014c4:	90                   	nop
  4014c5:	c9                   	leaveq 
  4014c6:	c3                   	retq   

00000000004014c7 <fun7>:
  4014c7:	55                   	push   %rbp
  4014c8:	48 89 e5             	mov    %rsp,%rbp
  4014cb:	48 83 ec 10          	sub    $0x10,%rsp
  4014cf:	48 89 7d f8          	mov    %rdi,-0x8(%rbp)
  4014d3:	89 75 f4             	mov    %esi,-0xc(%rbp)
  4014d6:	48 83 7d f8 00       	cmpq   $0x0,-0x8(%rbp)
  4014db:	75 07                	jne    4014e4 <fun7+0x1d>
  4014dd:	b8 ff ff ff ff       	mov    $0xffffffff,%eax
  4014e2:	eb 50                	jmp    401534 <fun7+0x6d>
  4014e4:	48 8b 45 f8          	mov    -0x8(%rbp),%rax
  4014e8:	8b 00                	mov    (%rax),%eax
  4014ea:	3b 45 f4             	cmp    -0xc(%rbp),%eax
  4014ed:	7e 19                	jle    401508 <fun7+0x41>
  4014ef:	48 8b 45 f8          	mov    -0x8(%rbp),%rax
  4014f3:	48 8b 40 08          	mov    0x8(%rax),%rax
  4014f7:	8b 55 f4             	mov    -0xc(%rbp),%edx
  4014fa:	89 d6                	mov    %edx,%esi
  4014fc:	48 89 c7             	mov    %rax,%rdi
  4014ff:	e8 c3 ff ff ff       	callq  4014c7 <fun7>
  401504:	01 c0                	add    %eax,%eax
  401506:	eb 2c                	jmp    401534 <fun7+0x6d>
  401508:	48 8b 45 f8          	mov    -0x8(%rbp),%rax
  40150c:	8b 00                	mov    (%rax),%eax
  40150e:	3b 45 f4             	cmp    -0xc(%rbp),%eax
  401511:	75 07                	jne    40151a <fun7+0x53>
  401513:	b8 00 00 00 00       	mov    $0x0,%eax
  401518:	eb 1a                	jmp    401534 <fun7+0x6d>
  40151a:	48 8b 45 f8          	mov    -0x8(%rbp),%rax
  40151e:	48 8b 40 10          	mov    0x10(%rax),%rax
  401522:	8b 55 f4             	mov    -0xc(%rbp),%edx
  401525:	89 d6                	mov    %edx,%esi
  401527:	48 89 c7             	mov    %rax,%rdi
  40152a:	e8 98 ff ff ff       	callq  4014c7 <fun7>
  40152f:	01 c0                	add    %eax,%eax
  401531:	83 c0 01             	add    $0x1,%eax
  401534:	c9                   	leaveq 
  401535:	c3                   	retq   

0000000000401536 <secret_phase>:
  401536:	55                   	push   %rbp
  401537:	48 89 e5             	mov    %rsp,%rbp
  40153a:	48 83 ec 10          	sub    $0x10,%rsp
  40153e:	e8 e4 03 00 00       	callq  401927 <read_line>
  401543:	48 89 45 f8          	mov    %rax,-0x8(%rbp)
  401547:	48 8b 45 f8          	mov    -0x8(%rbp),%rax
  40154b:	48 89 c7             	mov    %rax,%rdi
  40154e:	e8 8d f8 ff ff       	callq  400de0 <atoi@plt>
  401553:	89 45 f4             	mov    %eax,-0xc(%rbp)
  401556:	83 7d f4 00          	cmpl   $0x0,-0xc(%rbp)
  40155a:	7e 09                	jle    401565 <secret_phase+0x2f>
  40155c:	81 7d f4 e9 03 00 00 	cmpl   $0x3e9,-0xc(%rbp)
  401563:	7e 05                	jle    40156a <secret_phase+0x34>
  401565:	e8 98 0b 00 00       	callq  402102 <explode_bomb>
  40156a:	8b 45 f4             	mov    -0xc(%rbp),%eax
  40156d:	89 c6                	mov    %eax,%esi
  40156f:	48 8d 3d 7a 22 20 00 	lea    0x20227a(%rip),%rdi        # 6037f0 <n1>
  401576:	e8 4c ff ff ff       	callq  4014c7 <fun7>
  40157b:	89 45 f0             	mov    %eax,-0x10(%rbp)
  40157e:	83 7d f0 01          	cmpl   $0x1,-0x10(%rbp)
  401582:	74 05                	je     401589 <secret_phase+0x53>
  401584:	e8 79 0b 00 00       	callq  402102 <explode_bomb>
  401589:	48 8d 3d a0 0e 00 00 	lea    0xea0(%rip),%rdi        # 402430 <_IO_stdin_used+0x1c0>
  401590:	e8 db f6 ff ff       	callq  400c70 <puts@plt>
  401595:	e8 a4 0b 00 00       	callq  40213e <phase_defused>
  40159a:	90                   	nop
  40159b:	c9                   	leaveq 
  40159c:	c3                   	retq   

000000000040159d <sig_handler>:
  40159d:	55                   	push   %rbp
  40159e:	48 89 e5             	mov    %rsp,%rbp
  4015a1:	48 83 ec 10          	sub    $0x10,%rsp
  4015a5:	89 7d fc             	mov    %edi,-0x4(%rbp)
  4015a8:	48 8d 3d a9 0e 00 00 	lea    0xea9(%rip),%rdi        # 402458 <_IO_stdin_used+0x1e8>
  4015af:	e8 bc f6 ff ff       	callq  400c70 <puts@plt>
  4015b4:	bf 03 00 00 00       	mov    $0x3,%edi
  4015b9:	e8 82 f8 ff ff       	callq  400e40 <sleep@plt>
  4015be:	48 8d 3d cb 0e 00 00 	lea    0xecb(%rip),%rdi        # 402490 <_IO_stdin_used+0x220>
  4015c5:	b8 00 00 00 00       	mov    $0x0,%eax
  4015ca:	e8 01 f7 ff ff       	callq  400cd0 <printf@plt>
  4015cf:	48 8b 05 4a 22 20 00 	mov    0x20224a(%rip),%rax        # 603820 <stdout@@GLIBC_2.2.5>
  4015d6:	48 89 c7             	mov    %rax,%rdi
  4015d9:	e8 a2 f7 ff ff       	callq  400d80 <fflush@plt>
  4015de:	bf 01 00 00 00       	mov    $0x1,%edi
  4015e3:	e8 58 f8 ff ff       	callq  400e40 <sleep@plt>
  4015e8:	48 8d 3d a9 0e 00 00 	lea    0xea9(%rip),%rdi        # 402498 <_IO_stdin_used+0x228>
  4015ef:	e8 7c f6 ff ff       	callq  400c70 <puts@plt>
  4015f4:	bf 10 00 00 00       	mov    $0x10,%edi
  4015f9:	e8 12 f8 ff ff       	callq  400e10 <exit@plt>

00000000004015fe <invalid_phase>:
  4015fe:	55                   	push   %rbp
  4015ff:	48 89 e5             	mov    %rsp,%rbp
  401602:	48 83 ec 10          	sub    $0x10,%rsp
  401606:	48 89 7d f8          	mov    %rdi,-0x8(%rbp)
  40160a:	48 8b 45 f8          	mov    -0x8(%rbp),%rax
  40160e:	48 89 c6             	mov    %rax,%rsi
  401611:	48 8d 3d 88 0e 00 00 	lea    0xe88(%rip),%rdi        # 4024a0 <_IO_stdin_used+0x230>
  401618:	b8 00 00 00 00       	mov    $0x0,%eax
  40161d:	e8 ae f6 ff ff       	callq  400cd0 <printf@plt>
  401622:	bf 08 00 00 00       	mov    $0x8,%edi
  401627:	e8 e4 f7 ff ff       	callq  400e10 <exit@plt>

000000000040162c <read_six_numbers>:
  40162c:	55                   	push   %rbp
  40162d:	48 89 e5             	mov    %rsp,%rbp
  401630:	48 83 ec 20          	sub    $0x20,%rsp
  401634:	48 89 7d e8          	mov    %rdi,-0x18(%rbp)
  401638:	48 89 75 e0          	mov    %rsi,-0x20(%rbp)
  40163c:	48 8b 45 e0          	mov    -0x20(%rbp),%rax
  401640:	48 8d 78 14          	lea    0x14(%rax),%rdi
  401644:	48 8b 45 e0          	mov    -0x20(%rbp),%rax
  401648:	48 8d 70 10          	lea    0x10(%rax),%rsi
  40164c:	48 8b 45 e0          	mov    -0x20(%rbp),%rax
  401650:	4c 8d 48 0c          	lea    0xc(%rax),%r9
  401654:	48 8b 45 e0          	mov    -0x20(%rbp),%rax
  401658:	4c 8d 40 08          	lea    0x8(%rax),%r8
  40165c:	48 8b 45 e0          	mov    -0x20(%rbp),%rax
  401660:	48 8d 48 04          	lea    0x4(%rax),%rcx
  401664:	48 8b 55 e0          	mov    -0x20(%rbp),%rdx
  401668:	48 8b 45 e8          	mov    -0x18(%rbp),%rax
  40166c:	57                   	push   %rdi
  40166d:	56                   	push   %rsi
  40166e:	48 8d 35 3c 0e 00 00 	lea    0xe3c(%rip),%rsi        # 4024b1 <_IO_stdin_used+0x241>
  401675:	48 89 c7             	mov    %rax,%rdi
  401678:	b8 00 00 00 00       	mov    $0x0,%eax
  40167d:	e8 0e f7 ff ff       	callq  400d90 <__isoc99_sscanf@plt>
  401682:	48 83 c4 10          	add    $0x10,%rsp
  401686:	89 45 fc             	mov    %eax,-0x4(%rbp)
  401689:	83 7d fc 05          	cmpl   $0x5,-0x4(%rbp)
  40168d:	7f 05                	jg     401694 <read_six_numbers+0x68>
  40168f:	e8 6e 0a 00 00       	callq  402102 <explode_bomb>
  401694:	90                   	nop
  401695:	c9                   	leaveq 
  401696:	c3                   	retq   

0000000000401697 <string_length>:
  401697:	55                   	push   %rbp
  401698:	48 89 e5             	mov    %rsp,%rbp
  40169b:	48 89 7d e8          	mov    %rdi,-0x18(%rbp)
  40169f:	48 8b 45 e8          	mov    -0x18(%rbp),%rax
  4016a3:	48 89 45 f0          	mov    %rax,-0x10(%rbp)
  4016a7:	c7 45 fc 00 00 00 00 	movl   $0x0,-0x4(%rbp)
  4016ae:	eb 09                	jmp    4016b9 <string_length+0x22>
  4016b0:	48 83 45 f0 01       	addq   $0x1,-0x10(%rbp)
  4016b5:	83 45 fc 01          	addl   $0x1,-0x4(%rbp)
  4016b9:	48 8b 45 f0          	mov    -0x10(%rbp),%rax
  4016bd:	0f b6 00             	movzbl (%rax),%eax
  4016c0:	84 c0                	test   %al,%al
  4016c2:	75 ec                	jne    4016b0 <string_length+0x19>
  4016c4:	8b 45 fc             	mov    -0x4(%rbp),%eax
  4016c7:	5d                   	pop    %rbp
  4016c8:	c3                   	retq   

00000000004016c9 <strings_not_equal>:
  4016c9:	55                   	push   %rbp
  4016ca:	48 89 e5             	mov    %rsp,%rbp
  4016cd:	53                   	push   %rbx
  4016ce:	48 83 ec 20          	sub    $0x20,%rsp
  4016d2:	48 89 7d e0          	mov    %rdi,-0x20(%rbp)
  4016d6:	48 89 75 d8          	mov    %rsi,-0x28(%rbp)
  4016da:	48 8b 45 e0          	mov    -0x20(%rbp),%rax
  4016de:	48 89 c7             	mov    %rax,%rdi
  4016e1:	e8 b1 ff ff ff       	callq  401697 <string_length>
  4016e6:	89 c3                	mov    %eax,%ebx
  4016e8:	48 8b 45 d8          	mov    -0x28(%rbp),%rax
  4016ec:	48 89 c7             	mov    %rax,%rdi
  4016ef:	e8 a3 ff ff ff       	callq  401697 <string_length>
  4016f4:	39 c3                	cmp    %eax,%ebx
  4016f6:	74 07                	je     4016ff <strings_not_equal+0x36>
  4016f8:	b8 01 00 00 00       	mov    $0x1,%eax
  4016fd:	eb 45                	jmp    401744 <strings_not_equal+0x7b>
  4016ff:	48 8b 45 e0          	mov    -0x20(%rbp),%rax
  401703:	48 89 45 f0          	mov    %rax,-0x10(%rbp)
  401707:	48 8b 45 d8          	mov    -0x28(%rbp),%rax
  40170b:	48 89 45 e8          	mov    %rax,-0x18(%rbp)
  40170f:	eb 23                	jmp    401734 <strings_not_equal+0x6b>
  401711:	48 8b 45 f0          	mov    -0x10(%rbp),%rax
  401715:	0f b6 10             	movzbl (%rax),%edx
  401718:	48 8b 45 e8          	mov    -0x18(%rbp),%rax
  40171c:	0f b6 00             	movzbl (%rax),%eax
  40171f:	38 c2                	cmp    %al,%dl
  401721:	74 07                	je     40172a <strings_not_equal+0x61>
  401723:	b8 01 00 00 00       	mov    $0x1,%eax
  401728:	eb 1a                	jmp    401744 <strings_not_equal+0x7b>
  40172a:	48 83 45 f0 01       	addq   $0x1,-0x10(%rbp)
  40172f:	48 83 45 e8 01       	addq   $0x1,-0x18(%rbp)
  401734:	48 8b 45 f0          	mov    -0x10(%rbp),%rax
  401738:	0f b6 00             	movzbl (%rax),%eax
  40173b:	84 c0                	test   %al,%al
  40173d:	75 d2                	jne    401711 <strings_not_equal+0x48>
  40173f:	b8 00 00 00 00       	mov    $0x0,%eax
  401744:	48 83 c4 20          	add    $0x20,%rsp
  401748:	5b                   	pop    %rbx
  401749:	5d                   	pop    %rbp
  40174a:	c3                   	retq   

000000000040174b <open_clientfd>:
  40174b:	55                   	push   %rbp
  40174c:	48 89 e5             	mov    %rsp,%rbp
  40174f:	48 83 ec 30          	sub    $0x30,%rsp
  401753:	48 89 7d d8          	mov    %rdi,-0x28(%rbp)
  401757:	89 75 d4             	mov    %esi,-0x2c(%rbp)
  40175a:	ba 00 00 00 00       	mov    $0x0,%edx
  40175f:	be 01 00 00 00       	mov    $0x1,%esi
  401764:	bf 02 00 00 00       	mov    $0x2,%edi
  401769:	e8 f2 f6 ff ff       	callq  400e60 <socket@plt>
  40176e:	89 45 fc             	mov    %eax,-0x4(%rbp)
  401771:	83 7d fc 00          	cmpl   $0x0,-0x4(%rbp)
  401775:	79 16                	jns    40178d <open_clientfd+0x42>
  401777:	48 8d 3d 45 0d 00 00 	lea    0xd45(%rip),%rdi        # 4024c3 <_IO_stdin_used+0x253>
  40177e:	e8 ed f4 ff ff       	callq  400c70 <puts@plt>
  401783:	bf 08 00 00 00       	mov    $0x8,%edi
  401788:	e8 83 f6 ff ff       	callq  400e10 <exit@plt>
  40178d:	48 8b 45 d8          	mov    -0x28(%rbp),%rax
  401791:	48 89 c7             	mov    %rax,%rdi
  401794:	e8 b7 f5 ff ff       	callq  400d50 <gethostbyname@plt>
  401799:	48 89 45 f0          	mov    %rax,-0x10(%rbp)
  40179d:	48 83 7d f0 00       	cmpq   $0x0,-0x10(%rbp)
  4017a2:	75 16                	jne    4017ba <open_clientfd+0x6f>
  4017a4:	48 8d 3d 26 0d 00 00 	lea    0xd26(%rip),%rdi        # 4024d1 <_IO_stdin_used+0x261>
  4017ab:	e8 c0 f4 ff ff       	callq  400c70 <puts@plt>
  4017b0:	bf 08 00 00 00       	mov    $0x8,%edi
  4017b5:	e8 56 f6 ff ff       	callq  400e10 <exit@plt>
  4017ba:	48 8d 45 e0          	lea    -0x20(%rbp),%rax
  4017be:	be 10 00 00 00       	mov    $0x10,%esi
  4017c3:	48 89 c7             	mov    %rax,%rdi
  4017c6:	e8 05 f6 ff ff       	callq  400dd0 <bzero@plt>
  4017cb:	66 c7 45 e0 02 00    	movw   $0x2,-0x20(%rbp)
  4017d1:	48 8b 45 f0          	mov    -0x10(%rbp),%rax
  4017d5:	8b 40 14             	mov    0x14(%rax),%eax
  4017d8:	48 63 d0             	movslq %eax,%rdx
  4017db:	48 8b 45 f0          	mov    -0x10(%rbp),%rax
  4017df:	48 8b 40 18          	mov    0x18(%rax),%rax
  4017e3:	48 8b 00             	mov    (%rax),%rax
  4017e6:	48 8d 4d e0          	lea    -0x20(%rbp),%rcx
  4017ea:	48 83 c1 04          	add    $0x4,%rcx
  4017ee:	48 89 ce             	mov    %rcx,%rsi
  4017f1:	48 89 c7             	mov    %rax,%rdi
  4017f4:	e8 a7 f5 ff ff       	callq  400da0 <bcopy@plt>
  4017f9:	8b 45 d4             	mov    -0x2c(%rbp),%eax
  4017fc:	0f b7 c0             	movzwl %ax,%eax
  4017ff:	89 c7                	mov    %eax,%edi
  401801:	e8 ba f4 ff ff       	callq  400cc0 <htons@plt>
  401806:	66 89 45 e2          	mov    %ax,-0x1e(%rbp)
  40180a:	48 8d 4d e0          	lea    -0x20(%rbp),%rcx
  40180e:	8b 45 fc             	mov    -0x4(%rbp),%eax
  401811:	ba 10 00 00 00       	mov    $0x10,%edx
  401816:	48 89 ce             	mov    %rcx,%rsi
  401819:	89 c7                	mov    %eax,%edi
  40181b:	e8 00 f6 ff ff       	callq  400e20 <connect@plt>
  401820:	85 c0                	test   %eax,%eax
  401822:	79 16                	jns    40183a <open_clientfd+0xef>
  401824:	48 8d 3d b4 0c 00 00 	lea    0xcb4(%rip),%rdi        # 4024df <_IO_stdin_used+0x26f>
  40182b:	e8 40 f4 ff ff       	callq  400c70 <puts@plt>
  401830:	bf 08 00 00 00       	mov    $0x8,%edi
  401835:	e8 d6 f5 ff ff       	callq  400e10 <exit@plt>
  40183a:	8b 45 fc             	mov    -0x4(%rbp),%eax
  40183d:	c9                   	leaveq 
  40183e:	c3                   	retq   

000000000040183f <initialize_bomb>:
  40183f:	55                   	push   %rbp
  401840:	48 89 e5             	mov    %rsp,%rbp
  401843:	48 8d 35 53 fd ff ff 	lea    -0x2ad(%rip),%rsi        # 40159d <sig_handler>
  40184a:	bf 02 00 00 00       	mov    $0x2,%edi
  40184f:	e8 ec f4 ff ff       	callq  400d40 <signal@plt>
  401854:	be 50 00 00 00       	mov    $0x50,%esi
  401859:	48 8d 3d 8d 0c 00 00 	lea    0xc8d(%rip),%rdi        # 4024ed <_IO_stdin_used+0x27d>
  401860:	e8 e6 fe ff ff       	callq  40174b <open_clientfd>
  401865:	89 c7                	mov    %eax,%edi
  401867:	e8 94 f4 ff ff       	callq  400d00 <close@plt>
  40186c:	90                   	nop
  40186d:	5d                   	pop    %rbp
  40186e:	c3                   	retq   

000000000040186f <blank_line>:
  40186f:	55                   	push   %rbp
  401870:	48 89 e5             	mov    %rsp,%rbp
  401873:	48 83 ec 10          	sub    $0x10,%rsp
  401877:	48 89 7d f8          	mov    %rdi,-0x8(%rbp)
  40187b:	eb 37                	jmp    4018b4 <blank_line+0x45>
  40187d:	e8 ce f5 ff ff       	callq  400e50 <__ctype_b_loc@plt>
  401882:	48 8b 08             	mov    (%rax),%rcx
  401885:	48 8b 45 f8          	mov    -0x8(%rbp),%rax
  401889:	48 8d 50 01          	lea    0x1(%rax),%rdx
  40188d:	48 89 55 f8          	mov    %rdx,-0x8(%rbp)
  401891:	0f b6 00             	movzbl (%rax),%eax
  401894:	48 0f be c0          	movsbq %al,%rax
  401898:	48 01 c0             	add    %rax,%rax
  40189b:	48 01 c8             	add    %rcx,%rax
  40189e:	0f b7 00             	movzwl (%rax),%eax
  4018a1:	0f b7 c0             	movzwl %ax,%eax
  4018a4:	25 00 20 00 00       	and    $0x2000,%eax
  4018a9:	85 c0                	test   %eax,%eax
  4018ab:	75 07                	jne    4018b4 <blank_line+0x45>
  4018ad:	b8 00 00 00 00       	mov    $0x0,%eax
  4018b2:	eb 10                	jmp    4018c4 <blank_line+0x55>
  4018b4:	48 8b 45 f8          	mov    -0x8(%rbp),%rax
  4018b8:	0f b6 00             	movzbl (%rax),%eax
  4018bb:	84 c0                	test   %al,%al
  4018bd:	75 be                	jne    40187d <blank_line+0xe>
  4018bf:	b8 01 00 00 00       	mov    $0x1,%eax
  4018c4:	c9                   	leaveq 
  4018c5:	c3                   	retq   

00000000004018c6 <skip>:
  4018c6:	55                   	push   %rbp
  4018c7:	48 89 e5             	mov    %rsp,%rbp
  4018ca:	48 83 ec 10          	sub    $0x10,%rsp
  4018ce:	48 8b 0d 6b 1f 20 00 	mov    0x201f6b(%rip),%rcx        # 603840 <infile>
  4018d5:	8b 05 61 1f 20 00    	mov    0x201f61(%rip),%eax        # 60383c <num_input_strings>
  4018db:	48 63 d0             	movslq %eax,%rdx
  4018de:	48 89 d0             	mov    %rdx,%rax
  4018e1:	48 c1 e0 02          	shl    $0x2,%rax
  4018e5:	48 01 d0             	add    %rdx,%rax
  4018e8:	48 c1 e0 04          	shl    $0x4,%rax
  4018ec:	48 8d 15 6d 1f 20 00 	lea    0x201f6d(%rip),%rdx        # 603860 <input_strings>
  4018f3:	48 01 d0             	add    %rdx,%rax
  4018f6:	48 89 ca             	mov    %rcx,%rdx
  4018f9:	be 50 00 00 00       	mov    $0x50,%esi
  4018fe:	48 89 c7             	mov    %rax,%rdi
  401901:	e8 1a f4 ff ff       	callq  400d20 <fgets@plt>
  401906:	48 89 45 f8          	mov    %rax,-0x8(%rbp)
  40190a:	48 83 7d f8 00       	cmpq   $0x0,-0x8(%rbp)
  40190f:	74 10                	je     401921 <skip+0x5b>
  401911:	48 8b 45 f8          	mov    -0x8(%rbp),%rax
  401915:	48 89 c7             	mov    %rax,%rdi
  401918:	e8 52 ff ff ff       	callq  40186f <blank_line>
  40191d:	85 c0                	test   %eax,%eax
  40191f:	75 ad                	jne    4018ce <skip+0x8>
  401921:	48 8b 45 f8          	mov    -0x8(%rbp),%rax
  401925:	c9                   	leaveq 
  401926:	c3                   	retq   

0000000000401927 <read_line>:
  401927:	55                   	push   %rbp
  401928:	48 89 e5             	mov    %rsp,%rbp
  40192b:	48 83 ec 10          	sub    $0x10,%rsp
  40192f:	b8 00 00 00 00       	mov    $0x0,%eax
  401934:	e8 8d ff ff ff       	callq  4018c6 <skip>
  401939:	48 89 45 f8          	mov    %rax,-0x8(%rbp)
  40193d:	48 83 7d f8 00       	cmpq   $0x0,-0x8(%rbp)
  401942:	75 75                	jne    4019b9 <read_line+0x92>
  401944:	48 8b 15 f5 1e 20 00 	mov    0x201ef5(%rip),%rdx        # 603840 <infile>
  40194b:	48 8b 05 de 1e 20 00 	mov    0x201ede(%rip),%rax        # 603830 <stdin@@GLIBC_2.2.5>
  401952:	48 39 c2             	cmp    %rax,%rdx
  401955:	75 13                	jne    40196a <read_line+0x43>
  401957:	48 8d 3d 9d 0b 00 00 	lea    0xb9d(%rip),%rdi        # 4024fb <_IO_stdin_used+0x28b>
  40195e:	e8 0d f3 ff ff       	callq  400c70 <puts@plt>
  401963:	e8 9a 07 00 00       	callq  402102 <explode_bomb>
  401968:	eb 4f                	jmp    4019b9 <read_line+0x92>
  40196a:	48 8d 3d a8 0b 00 00 	lea    0xba8(%rip),%rdi        # 402519 <_IO_stdin_used+0x2a9>
  401971:	e8 ca f2 ff ff       	callq  400c40 <getenv@plt>
  401976:	48 85 c0             	test   %rax,%rax
  401979:	74 0a                	je     401985 <read_line+0x5e>
  40197b:	bf 00 00 00 00       	mov    $0x0,%edi
  401980:	e8 8b f4 ff ff       	callq  400e10 <exit@plt>
  401985:	48 8b 05 a4 1e 20 00 	mov    0x201ea4(%rip),%rax        # 603830 <stdin@@GLIBC_2.2.5>
  40198c:	48 89 05 ad 1e 20 00 	mov    %rax,0x201ead(%rip)        # 603840 <infile>
  401993:	b8 00 00 00 00       	mov    $0x0,%eax
  401998:	e8 29 ff ff ff       	callq  4018c6 <skip>
  40199d:	48 89 45 f8          	mov    %rax,-0x8(%rbp)
  4019a1:	48 83 7d f8 00       	cmpq   $0x0,-0x8(%rbp)
  4019a6:	75 11                	jne    4019b9 <read_line+0x92>
  4019a8:	48 8d 3d 4c 0b 00 00 	lea    0xb4c(%rip),%rdi        # 4024fb <_IO_stdin_used+0x28b>
  4019af:	e8 bc f2 ff ff       	callq  400c70 <puts@plt>
  4019b4:	e8 49 07 00 00       	callq  402102 <explode_bomb>
  4019b9:	8b 05 7d 1e 20 00    	mov    0x201e7d(%rip),%eax        # 60383c <num_input_strings>
  4019bf:	48 63 d0             	movslq %eax,%rdx
  4019c2:	48 89 d0             	mov    %rdx,%rax
  4019c5:	48 c1 e0 02          	shl    $0x2,%rax
  4019c9:	48 01 d0             	add    %rdx,%rax
  4019cc:	48 c1 e0 04          	shl    $0x4,%rax
  4019d0:	48 8d 15 89 1e 20 00 	lea    0x201e89(%rip),%rdx        # 603860 <input_strings>
  4019d7:	48 01 d0             	add    %rdx,%rax
  4019da:	48 89 c7             	mov    %rax,%rdi
  4019dd:	e8 be f2 ff ff       	callq  400ca0 <strlen@plt>
  4019e2:	89 45 f4             	mov    %eax,-0xc(%rbp)
  4019e5:	83 7d f4 4f          	cmpl   $0x4f,-0xc(%rbp)
  4019e9:	75 11                	jne    4019fc <read_line+0xd5>
  4019eb:	48 8d 3d 32 0b 00 00 	lea    0xb32(%rip),%rdi        # 402524 <_IO_stdin_used+0x2b4>
  4019f2:	e8 79 f2 ff ff       	callq  400c70 <puts@plt>
  4019f7:	e8 06 07 00 00       	callq  402102 <explode_bomb>
  4019fc:	8b 05 3a 1e 20 00    	mov    0x201e3a(%rip),%eax        # 60383c <num_input_strings>
  401a02:	8b 55 f4             	mov    -0xc(%rbp),%edx
  401a05:	83 ea 01             	sub    $0x1,%edx
  401a08:	48 63 ca             	movslq %edx,%rcx
  401a0b:	48 63 d0             	movslq %eax,%rdx
  401a0e:	48 89 d0             	mov    %rdx,%rax
  401a11:	48 c1 e0 02          	shl    $0x2,%rax
  401a15:	48 01 d0             	add    %rdx,%rax
  401a18:	48 c1 e0 04          	shl    $0x4,%rax
  401a1c:	48 8d 14 08          	lea    (%rax,%rcx,1),%rdx
  401a20:	48 8d 05 39 1e 20 00 	lea    0x201e39(%rip),%rax        # 603860 <input_strings>
  401a27:	48 01 d0             	add    %rdx,%rax
  401a2a:	c6 00 00             	movb   $0x0,(%rax)
  401a2d:	8b 05 09 1e 20 00    	mov    0x201e09(%rip),%eax        # 60383c <num_input_strings>
  401a33:	8d 50 01             	lea    0x1(%rax),%edx
  401a36:	89 15 00 1e 20 00    	mov    %edx,0x201e00(%rip)        # 60383c <num_input_strings>
  401a3c:	48 63 d0             	movslq %eax,%rdx
  401a3f:	48 89 d0             	mov    %rdx,%rax
  401a42:	48 c1 e0 02          	shl    $0x2,%rax
  401a46:	48 01 d0             	add    %rdx,%rax
  401a49:	48 c1 e0 04          	shl    $0x4,%rax
  401a4d:	48 8d 15 0c 1e 20 00 	lea    0x201e0c(%rip),%rdx        # 603860 <input_strings>
  401a54:	48 01 d0             	add    %rdx,%rax
  401a57:	c9                   	leaveq 
  401a58:	c3                   	retq   

0000000000401a59 <writen>:
  401a59:	55                   	push   %rbp
  401a5a:	48 89 e5             	mov    %rsp,%rbp
  401a5d:	48 83 ec 40          	sub    $0x40,%rsp
  401a61:	89 7d dc             	mov    %edi,-0x24(%rbp)
  401a64:	48 89 75 d0          	mov    %rsi,-0x30(%rbp)
  401a68:	48 89 55 c8          	mov    %rdx,-0x38(%rbp)
  401a6c:	48 8b 45 d0          	mov    -0x30(%rbp),%rax
  401a70:	48 89 45 e8          	mov    %rax,-0x18(%rbp)
  401a74:	48 8b 45 c8          	mov    -0x38(%rbp),%rax
  401a78:	48 89 45 f8          	mov    %rax,-0x8(%rbp)
  401a7c:	eb 4f                	jmp    401acd <writen+0x74>
  401a7e:	48 8b 55 f8          	mov    -0x8(%rbp),%rdx
  401a82:	48 8b 4d e8          	mov    -0x18(%rbp),%rcx
  401a86:	8b 45 dc             	mov    -0x24(%rbp),%eax
  401a89:	48 89 ce             	mov    %rcx,%rsi
  401a8c:	89 c7                	mov    %eax,%edi
  401a8e:	e8 ed f1 ff ff       	callq  400c80 <write@plt>
  401a93:	48 89 45 f0          	mov    %rax,-0x10(%rbp)
  401a97:	48 83 7d f0 00       	cmpq   $0x0,-0x10(%rbp)
  401a9c:	7f 1f                	jg     401abd <writen+0x64>
  401a9e:	e8 ad f1 ff ff       	callq  400c50 <__errno_location@plt>
  401aa3:	8b 00                	mov    (%rax),%eax
  401aa5:	83 f8 04             	cmp    $0x4,%eax
  401aa8:	75 0a                	jne    401ab4 <writen+0x5b>
  401aaa:	48 c7 45 f0 00 00 00 	movq   $0x0,-0x10(%rbp)
  401ab1:	00 
  401ab2:	eb 09                	jmp    401abd <writen+0x64>
  401ab4:	48 c7 c0 ff ff ff ff 	mov    $0xffffffffffffffff,%rax
  401abb:	eb 1b                	jmp    401ad8 <writen+0x7f>
  401abd:	48 8b 45 f0          	mov    -0x10(%rbp),%rax
  401ac1:	48 29 45 f8          	sub    %rax,-0x8(%rbp)
  401ac5:	48 8b 45 f0          	mov    -0x10(%rbp),%rax
  401ac9:	48 01 45 e8          	add    %rax,-0x18(%rbp)
  401acd:	48 83 7d f8 00       	cmpq   $0x0,-0x8(%rbp)
  401ad2:	75 aa                	jne    401a7e <writen+0x25>
  401ad4:	48 8b 45 c8          	mov    -0x38(%rbp),%rax
  401ad8:	c9                   	leaveq 
  401ad9:	c3                   	retq   

0000000000401ada <send_msg>:
  401ada:	55                   	push   %rbp
  401adb:	48 89 e5             	mov    %rsp,%rbp
  401ade:	53                   	push   %rbx
  401adf:	48 81 ec 88 24 00 00 	sub    $0x2488,%rsp
  401ae6:	89 bd 7c db ff ff    	mov    %edi,-0x2484(%rbp)
  401aec:	c7 45 e8 00 00 00 00 	movl   $0x0,-0x18(%rbp)
  401af3:	ba 00 00 00 00       	mov    $0x0,%edx
  401af8:	be 01 00 00 00       	mov    $0x1,%esi
  401afd:	bf 02 00 00 00       	mov    $0x2,%edi
  401b02:	e8 59 f3 ff ff       	callq  400e60 <socket@plt>
  401b07:	89 45 e8             	mov    %eax,-0x18(%rbp)
  401b0a:	83 7d e8 00          	cmpl   $0x0,-0x18(%rbp)
  401b0e:	79 3c                	jns    401b4c <send_msg+0x72>
  401b10:	48 8b 05 09 1d 20 00 	mov    0x201d09(%rip),%rax        # 603820 <stdout@@GLIBC_2.2.5>
  401b17:	48 8d 15 21 0a 00 00 	lea    0xa21(%rip),%rdx        # 40253f <_IO_stdin_used+0x2cf>
  401b1e:	48 8d 35 27 0a 00 00 	lea    0xa27(%rip),%rsi        # 40254c <_IO_stdin_used+0x2dc>
  401b25:	48 89 c7             	mov    %rax,%rdi
  401b28:	b8 00 00 00 00       	mov    $0x0,%eax
  401b2d:	e8 2e f2 ff ff       	callq  400d60 <fprintf@plt>
  401b32:	83 7d e8 00          	cmpl   $0x0,-0x18(%rbp)
  401b36:	74 0a                	je     401b42 <send_msg+0x68>
  401b38:	8b 45 e8             	mov    -0x18(%rbp),%eax
  401b3b:	89 c7                	mov    %eax,%edi
  401b3d:	e8 be f1 ff ff       	callq  400d00 <close@plt>
  401b42:	bf 01 00 00 00       	mov    $0x1,%edi
  401b47:	e8 c4 f2 ff ff       	callq  400e10 <exit@plt>
  401b4c:	48 8d 45 d0          	lea    -0x30(%rbp),%rax
  401b50:	be 10 00 00 00       	mov    $0x10,%esi
  401b55:	48 89 c7             	mov    %rax,%rdi
  401b58:	e8 73 f2 ff ff       	callq  400dd0 <bzero@plt>
  401b5d:	66 c7 45 d0 02 00    	movw   $0x2,-0x30(%rbp)
  401b63:	bf 7a c8 00 00       	mov    $0xc87a,%edi
  401b68:	e8 53 f1 ff ff       	callq  400cc0 <htons@plt>
  401b6d:	66 89 45 d2          	mov    %ax,-0x2e(%rbp)
  401b71:	48 8d 45 d0          	lea    -0x30(%rbp),%rax
  401b75:	48 83 c0 04          	add    $0x4,%rax
  401b79:	48 89 c2             	mov    %rax,%rdx
  401b7c:	48 8d 35 6a 09 00 00 	lea    0x96a(%rip),%rsi        # 4024ed <_IO_stdin_used+0x27d>
  401b83:	bf 02 00 00 00       	mov    $0x2,%edi
  401b88:	b8 00 00 00 00       	mov    $0x0,%eax
  401b8d:	e8 de f1 ff ff       	callq  400d70 <inet_pton@plt>
  401b92:	85 c0                	test   %eax,%eax
  401b94:	79 3c                	jns    401bd2 <send_msg+0xf8>
  401b96:	48 8b 05 83 1c 20 00 	mov    0x201c83(%rip),%rax        # 603820 <stdout@@GLIBC_2.2.5>
  401b9d:	48 8d 15 ac 09 00 00 	lea    0x9ac(%rip),%rdx        # 402550 <_IO_stdin_used+0x2e0>
  401ba4:	48 8d 35 a1 09 00 00 	lea    0x9a1(%rip),%rsi        # 40254c <_IO_stdin_used+0x2dc>
  401bab:	48 89 c7             	mov    %rax,%rdi
  401bae:	b8 00 00 00 00       	mov    $0x0,%eax
  401bb3:	e8 a8 f1 ff ff       	callq  400d60 <fprintf@plt>
  401bb8:	83 7d e8 00          	cmpl   $0x0,-0x18(%rbp)
  401bbc:	74 0a                	je     401bc8 <send_msg+0xee>
  401bbe:	8b 45 e8             	mov    -0x18(%rbp),%eax
  401bc1:	89 c7                	mov    %eax,%edi
  401bc3:	e8 38 f1 ff ff       	callq  400d00 <close@plt>
  401bc8:	bf 01 00 00 00       	mov    $0x1,%edi
  401bcd:	e8 3e f2 ff ff       	callq  400e10 <exit@plt>
  401bd2:	48 8d 4d d0          	lea    -0x30(%rbp),%rcx
  401bd6:	8b 45 e8             	mov    -0x18(%rbp),%eax
  401bd9:	ba 10 00 00 00       	mov    $0x10,%edx
  401bde:	48 89 ce             	mov    %rcx,%rsi
  401be1:	89 c7                	mov    %eax,%edi
  401be3:	e8 38 f2 ff ff       	callq  400e20 <connect@plt>
  401be8:	85 c0                	test   %eax,%eax
  401bea:	79 3c                	jns    401c28 <send_msg+0x14e>
  401bec:	48 8b 05 2d 1c 20 00 	mov    0x201c2d(%rip),%rax        # 603820 <stdout@@GLIBC_2.2.5>
  401bf3:	48 8d 15 5c 09 00 00 	lea    0x95c(%rip),%rdx        # 402556 <_IO_stdin_used+0x2e6>
  401bfa:	48 8d 35 4b 09 00 00 	lea    0x94b(%rip),%rsi        # 40254c <_IO_stdin_used+0x2dc>
  401c01:	48 89 c7             	mov    %rax,%rdi
  401c04:	b8 00 00 00 00       	mov    $0x0,%eax
  401c09:	e8 52 f1 ff ff       	callq  400d60 <fprintf@plt>
  401c0e:	83 7d e8 00          	cmpl   $0x0,-0x18(%rbp)
  401c12:	74 0a                	je     401c1e <send_msg+0x144>
  401c14:	8b 45 e8             	mov    -0x18(%rbp),%eax
  401c17:	89 c7                	mov    %eax,%edi
  401c19:	e8 e2 f0 ff ff       	callq  400d00 <close@plt>
  401c1e:	bf 01 00 00 00       	mov    $0x1,%edi
  401c23:	e8 e8 f1 ff ff       	callq  400e10 <exit@plt>
  401c28:	48 8d 85 d0 db ff ff 	lea    -0x2430(%rbp),%rax
  401c2f:	48 bb 53 75 62 6a 65 	movabs $0x3a7463656a627553,%rbx
  401c36:	63 74 3a 
  401c39:	48 89 18             	mov    %rbx,(%rax)
  401c3c:	48 bb 20 42 6f 6d 62 	movabs $0x6f6e20626d6f4220,%rbx
  401c43:	20 6e 6f 
  401c46:	48 89 58 08          	mov    %rbx,0x8(%rax)
  401c4a:	48 bb 74 69 66 69 63 	movabs $0x6974616369666974,%rbx
  401c51:	61 74 69 
  401c54:	48 89 58 10          	mov    %rbx,0x10(%rax)
  401c58:	c7 40 18 6f 6e 0a 00 	movl   $0xa6e6f,0x18(%rax)
  401c5f:	48 8d 95 d0 db ff ff 	lea    -0x2430(%rbp),%rdx
  401c66:	48 8d 85 d0 df ff ff 	lea    -0x2030(%rbp),%rax
  401c6d:	48 89 d6             	mov    %rdx,%rsi
  401c70:	48 89 c7             	mov    %rax,%rdi
  401c73:	e8 78 f1 ff ff       	callq  400df0 <strcat@plt>
  401c78:	48 8d 85 d0 db ff ff 	lea    -0x2430(%rbp),%rax
  401c7f:	66 c7 00 0a 00       	movw   $0xa,(%rax)
  401c84:	48 8d 95 d0 db ff ff 	lea    -0x2430(%rbp),%rdx
  401c8b:	48 8d 85 d0 df ff ff 	lea    -0x2030(%rbp),%rax
  401c92:	48 89 d6             	mov    %rdx,%rsi
  401c95:	48 89 c7             	mov    %rax,%rdi
  401c98:	e8 53 f1 ff ff       	callq  400df0 <strcat@plt>
  401c9d:	bf 00 00 00 00       	mov    $0x0,%edi
  401ca2:	e8 09 f1 ff ff       	callq  400db0 <cuserid@plt>
  401ca7:	48 89 45 e0          	mov    %rax,-0x20(%rbp)
  401cab:	48 83 7d e0 00       	cmpq   $0x0,-0x20(%rbp)
  401cb0:	75 19                	jne    401ccb <send_msg+0x1f1>
  401cb2:	48 8d 85 80 db ff ff 	lea    -0x2480(%rbp),%rax
  401cb9:	c7 00 6e 6f 62 6f    	movl   $0x6f626f6e,(%rax)
  401cbf:	66 c7 40 04 64 79    	movw   $0x7964,0x4(%rax)
  401cc5:	c6 40 06 00          	movb   $0x0,0x6(%rax)
  401cc9:	eb 16                	jmp    401ce1 <send_msg+0x207>
  401ccb:	48 8b 55 e0          	mov    -0x20(%rbp),%rdx
  401ccf:	48 8d 85 80 db ff ff 	lea    -0x2480(%rbp),%rax
  401cd6:	48 89 d6             	mov    %rdx,%rsi
  401cd9:	48 89 c7             	mov    %rax,%rdi
  401cdc:	e8 7f ef ff ff       	callq  400c60 <strcpy@plt>
  401ce1:	8b 0d 55 1b 20 00    	mov    0x201b55(%rip),%ecx        # 60383c <num_input_strings>
  401ce7:	83 bd 7c db ff ff 00 	cmpl   $0x0,-0x2484(%rbp)
  401cee:	74 09                	je     401cf9 <send_msg+0x21f>
  401cf0:	48 8d 05 6d 08 00 00 	lea    0x86d(%rip),%rax        # 402564 <_IO_stdin_used+0x2f4>
  401cf7:	eb 07                	jmp    401d00 <send_msg+0x226>
  401cf9:	48 8d 05 6c 08 00 00 	lea    0x86c(%rip),%rax        # 40256c <_IO_stdin_used+0x2fc>
  401d00:	8b 15 5a 14 20 00    	mov    0x20145a(%rip),%edx        # 603160 <bomb_id>
  401d06:	48 8d b5 80 db ff ff 	lea    -0x2480(%rbp),%rsi
  401d0d:	48 8d bd d0 db ff ff 	lea    -0x2430(%rbp),%rdi
  401d14:	48 83 ec 08          	sub    $0x8,%rsp
  401d18:	51                   	push   %rcx
  401d19:	49 89 c1             	mov    %rax,%r9
  401d1c:	49 89 f0             	mov    %rsi,%r8
  401d1f:	89 d1                	mov    %edx,%ecx
  401d21:	48 8d 15 58 14 20 00 	lea    0x201458(%rip),%rdx        # 603180 <lab_id>
  401d28:	48 8d 35 46 08 00 00 	lea    0x846(%rip),%rsi        # 402575 <_IO_stdin_used+0x305>
  401d2f:	b8 00 00 00 00       	mov    $0x0,%eax
  401d34:	e8 c7 f0 ff ff       	callq  400e00 <sprintf@plt>
  401d39:	48 83 c4 10          	add    $0x10,%rsp
  401d3d:	48 8d 95 d0 db ff ff 	lea    -0x2430(%rbp),%rdx
  401d44:	48 8d 85 d0 df ff ff 	lea    -0x2030(%rbp),%rax
  401d4b:	48 89 d6             	mov    %rdx,%rsi
  401d4e:	48 89 c7             	mov    %rax,%rdi
  401d51:	e8 9a f0 ff ff       	callq  400df0 <strcat@plt>
  401d56:	c7 45 ec 00 00 00 00 	movl   $0x0,-0x14(%rbp)
  401d5d:	e9 82 00 00 00       	jmpq   401de4 <send_msg+0x30a>
  401d62:	8b 45 ec             	mov    -0x14(%rbp),%eax
  401d65:	48 63 d0             	movslq %eax,%rdx
  401d68:	48 89 d0             	mov    %rdx,%rax
  401d6b:	48 c1 e0 02          	shl    $0x2,%rax
  401d6f:	48 01 d0             	add    %rdx,%rax
  401d72:	48 c1 e0 04          	shl    $0x4,%rax
  401d76:	48 8d 15 e3 1a 20 00 	lea    0x201ae3(%rip),%rdx        # 603860 <input_strings>
  401d7d:	48 8d 34 10          	lea    (%rax,%rdx,1),%rsi
  401d81:	8b 45 ec             	mov    -0x14(%rbp),%eax
  401d84:	8d 78 01             	lea    0x1(%rax),%edi
  401d87:	8b 15 d3 13 20 00    	mov    0x2013d3(%rip),%edx        # 603160 <bomb_id>
  401d8d:	48 8d 8d 80 db ff ff 	lea    -0x2480(%rbp),%rcx
  401d94:	48 8d 85 d0 db ff ff 	lea    -0x2430(%rbp),%rax
  401d9b:	48 83 ec 08          	sub    $0x8,%rsp
  401d9f:	56                   	push   %rsi
  401da0:	41 89 f9             	mov    %edi,%r9d
  401da3:	49 89 c8             	mov    %rcx,%r8
  401da6:	89 d1                	mov    %edx,%ecx
  401da8:	48 8d 15 d1 13 20 00 	lea    0x2013d1(%rip),%rdx        # 603180 <lab_id>
  401daf:	48 8d 35 db 07 00 00 	lea    0x7db(%rip),%rsi        # 402591 <_IO_stdin_used+0x321>
  401db6:	48 89 c7             	mov    %rax,%rdi
  401db9:	b8 00 00 00 00       	mov    $0x0,%eax
  401dbe:	e8 3d f0 ff ff       	callq  400e00 <sprintf@plt>
  401dc3:	48 83 c4 10          	add    $0x10,%rsp
  401dc7:	48 8d 95 d0 db ff ff 	lea    -0x2430(%rbp),%rdx
  401dce:	48 8d 85 d0 df ff ff 	lea    -0x2030(%rbp),%rax
  401dd5:	48 89 d6             	mov    %rdx,%rsi
  401dd8:	48 89 c7             	mov    %rax,%rdi
  401ddb:	e8 10 f0 ff ff       	callq  400df0 <strcat@plt>
  401de0:	83 45 ec 01          	addl   $0x1,-0x14(%rbp)
  401de4:	8b 05 52 1a 20 00    	mov    0x201a52(%rip),%eax        # 60383c <num_input_strings>
  401dea:	39 45 ec             	cmp    %eax,-0x14(%rbp)
  401ded:	0f 8c 6f ff ff ff    	jl     401d62 <send_msg+0x288>
  401df3:	48 8d 85 d0 df ff ff 	lea    -0x2030(%rbp),%rax
  401dfa:	48 89 c7             	mov    %rax,%rdi
  401dfd:	e8 9e ee ff ff       	callq  400ca0 <strlen@plt>
  401e02:	48 89 c2             	mov    %rax,%rdx
  401e05:	48 8d 8d d0 df ff ff 	lea    -0x2030(%rbp),%rcx
  401e0c:	8b 45 e8             	mov    -0x18(%rbp),%eax
  401e0f:	48 89 ce             	mov    %rcx,%rsi
  401e12:	89 c7                	mov    %eax,%edi
  401e14:	e8 40 fc ff ff       	callq  401a59 <writen>
  401e19:	48 89 c3             	mov    %rax,%rbx
  401e1c:	48 8d 85 d0 df ff ff 	lea    -0x2030(%rbp),%rax
  401e23:	48 89 c7             	mov    %rax,%rdi
  401e26:	e8 75 ee ff ff       	callq  400ca0 <strlen@plt>
  401e2b:	48 39 c3             	cmp    %rax,%rbx
  401e2e:	73 3c                	jae    401e6c <send_msg+0x392>
  401e30:	48 8b 05 e9 19 20 00 	mov    0x2019e9(%rip),%rax        # 603820 <stdout@@GLIBC_2.2.5>
  401e37:	48 8d 15 6f 07 00 00 	lea    0x76f(%rip),%rdx        # 4025ad <_IO_stdin_used+0x33d>
  401e3e:	48 8d 35 07 07 00 00 	lea    0x707(%rip),%rsi        # 40254c <_IO_stdin_used+0x2dc>
  401e45:	48 89 c7             	mov    %rax,%rdi
  401e48:	b8 00 00 00 00       	mov    $0x0,%eax
  401e4d:	e8 0e ef ff ff       	callq  400d60 <fprintf@plt>
  401e52:	83 7d e8 00          	cmpl   $0x0,-0x18(%rbp)
  401e56:	74 0a                	je     401e62 <send_msg+0x388>
  401e58:	8b 45 e8             	mov    -0x18(%rbp),%eax
  401e5b:	89 c7                	mov    %eax,%edi
  401e5d:	e8 9e ee ff ff       	callq  400d00 <close@plt>
  401e62:	bf 01 00 00 00       	mov    $0x1,%edi
  401e67:	e8 a4 ef ff ff       	callq  400e10 <exit@plt>
  401e6c:	8b 45 e8             	mov    -0x18(%rbp),%eax
  401e6f:	89 c7                	mov    %eax,%edi
  401e71:	e8 8a ee ff ff       	callq  400d00 <close@plt>
  401e76:	90                   	nop
  401e77:	48 8b 5d f8          	mov    -0x8(%rbp),%rbx
  401e7b:	c9                   	leaveq 
  401e7c:	c3                   	retq   

0000000000401e7d <send_msg_2>:
  401e7d:	55                   	push   %rbp
  401e7e:	48 89 e5             	mov    %rsp,%rbp
  401e81:	48 83 c4 80          	add    $0xffffffffffffff80,%rsp
  401e85:	89 7d 8c             	mov    %edi,-0x74(%rbp)
  401e88:	bf 00 00 00 00       	mov    $0x0,%edi
  401e8d:	e8 5e ee ff ff       	callq  400cf0 <dup@plt>
  401e92:	89 45 f8             	mov    %eax,-0x8(%rbp)
  401e95:	83 7d f8 ff          	cmpl   $0xffffffff,-0x8(%rbp)
  401e99:	75 16                	jne    401eb1 <send_msg_2+0x34>
  401e9b:	48 8d 3d 1e 07 00 00 	lea    0x71e(%rip),%rdi        # 4025c0 <_IO_stdin_used+0x350>
  401ea2:	e8 c9 ed ff ff       	callq  400c70 <puts@plt>
  401ea7:	bf 08 00 00 00       	mov    $0x8,%edi
  401eac:	e8 5f ef ff ff       	callq  400e10 <exit@plt>
  401eb1:	bf 00 00 00 00       	mov    $0x0,%edi
  401eb6:	e8 45 ee ff ff       	callq  400d00 <close@plt>
  401ebb:	83 f8 ff             	cmp    $0xffffffff,%eax
  401ebe:	75 16                	jne    401ed6 <send_msg_2+0x59>
  401ec0:	48 8d 3d 0d 07 00 00 	lea    0x70d(%rip),%rdi        # 4025d4 <_IO_stdin_used+0x364>
  401ec7:	e8 a4 ed ff ff       	callq  400c70 <puts@plt>
  401ecc:	bf 08 00 00 00       	mov    $0x8,%edi
  401ed1:	e8 3a ef ff ff       	callq  400e10 <exit@plt>
  401ed6:	e8 55 ee ff ff       	callq  400d30 <tmpfile@plt>
  401edb:	48 89 45 f0          	mov    %rax,-0x10(%rbp)
  401edf:	48 83 7d f0 00       	cmpq   $0x0,-0x10(%rbp)
  401ee4:	75 16                	jne    401efc <send_msg_2+0x7f>
  401ee6:	48 8d 3d fa 06 00 00 	lea    0x6fa(%rip),%rdi        # 4025e7 <_IO_stdin_used+0x377>
  401eed:	e8 7e ed ff ff       	callq  400c70 <puts@plt>
  401ef2:	bf 08 00 00 00       	mov    $0x8,%edi
  401ef7:	e8 14 ef ff ff       	callq  400e10 <exit@plt>
  401efc:	48 8b 45 f0          	mov    -0x10(%rbp),%rax
  401f00:	48 89 c1             	mov    %rax,%rcx
  401f03:	ba 1b 00 00 00       	mov    $0x1b,%edx
  401f08:	be 01 00 00 00       	mov    $0x1,%esi
  401f0d:	48 8d 3d e8 06 00 00 	lea    0x6e8(%rip),%rdi        # 4025fc <_IO_stdin_used+0x38c>
  401f14:	e8 17 ef ff ff       	callq  400e30 <fwrite@plt>
  401f19:	48 8b 45 f0          	mov    -0x10(%rbp),%rax
  401f1d:	48 89 c6             	mov    %rax,%rsi
  401f20:	bf 0a 00 00 00       	mov    $0xa,%edi
  401f25:	e8 e6 ed ff ff       	callq  400d10 <fputc@plt>
  401f2a:	bf 00 00 00 00       	mov    $0x0,%edi
  401f2f:	e8 7c ee ff ff       	callq  400db0 <cuserid@plt>
  401f34:	48 89 45 e8          	mov    %rax,-0x18(%rbp)
  401f38:	48 83 7d e8 00       	cmpq   $0x0,-0x18(%rbp)
  401f3d:	75 16                	jne    401f55 <send_msg_2+0xd8>
  401f3f:	48 8d 45 90          	lea    -0x70(%rbp),%rax
  401f43:	c7 00 6e 6f 62 6f    	movl   $0x6f626f6e,(%rax)
  401f49:	66 c7 40 04 64 79    	movw   $0x7964,0x4(%rax)
  401f4f:	c6 40 06 00          	movb   $0x0,0x6(%rax)
  401f53:	eb 13                	jmp    401f68 <send_msg_2+0xeb>
  401f55:	48 8b 55 e8          	mov    -0x18(%rbp),%rdx
  401f59:	48 8d 45 90          	lea    -0x70(%rbp),%rax
  401f5d:	48 89 d6             	mov    %rdx,%rsi
  401f60:	48 89 c7             	mov    %rax,%rdi
  401f63:	e8 f8 ec ff ff       	callq  400c60 <strcpy@plt>
  401f68:	8b 0d ce 18 20 00    	mov    0x2018ce(%rip),%ecx        # 60383c <num_input_strings>
  401f6e:	83 7d 8c 00          	cmpl   $0x0,-0x74(%rbp)
  401f72:	74 09                	je     401f7d <send_msg_2+0x100>
  401f74:	48 8d 05 e9 05 00 00 	lea    0x5e9(%rip),%rax        # 402564 <_IO_stdin_used+0x2f4>
  401f7b:	eb 07                	jmp    401f84 <send_msg_2+0x107>
  401f7d:	48 8d 05 e8 05 00 00 	lea    0x5e8(%rip),%rax        # 40256c <_IO_stdin_used+0x2fc>
  401f84:	8b 15 d6 11 20 00    	mov    0x2011d6(%rip),%edx        # 603160 <bomb_id>
  401f8a:	48 8d 75 90          	lea    -0x70(%rbp),%rsi
  401f8e:	48 8b 7d f0          	mov    -0x10(%rbp),%rdi
  401f92:	48 83 ec 08          	sub    $0x8,%rsp
  401f96:	51                   	push   %rcx
  401f97:	49 89 c1             	mov    %rax,%r9
  401f9a:	49 89 f0             	mov    %rsi,%r8
  401f9d:	89 d1                	mov    %edx,%ecx
  401f9f:	48 8d 15 da 11 20 00 	lea    0x2011da(%rip),%rdx        # 603180 <lab_id>
  401fa6:	48 8d 35 c8 05 00 00 	lea    0x5c8(%rip),%rsi        # 402575 <_IO_stdin_used+0x305>
  401fad:	b8 00 00 00 00       	mov    $0x0,%eax
  401fb2:	e8 a9 ed ff ff       	callq  400d60 <fprintf@plt>
  401fb7:	48 83 c4 10          	add    $0x10,%rsp
  401fbb:	c7 45 fc 00 00 00 00 	movl   $0x0,-0x4(%rbp)
  401fc2:	eb 63                	jmp    402027 <send_msg_2+0x1aa>
  401fc4:	8b 45 fc             	mov    -0x4(%rbp),%eax
  401fc7:	48 63 d0             	movslq %eax,%rdx
  401fca:	48 89 d0             	mov    %rdx,%rax
  401fcd:	48 c1 e0 02          	shl    $0x2,%rax
  401fd1:	48 01 d0             	add    %rdx,%rax
  401fd4:	48 c1 e0 04          	shl    $0x4,%rax
  401fd8:	48 8d 15 81 18 20 00 	lea    0x201881(%rip),%rdx        # 603860 <input_strings>
  401fdf:	48 8d 34 10          	lea    (%rax,%rdx,1),%rsi
  401fe3:	8b 45 fc             	mov    -0x4(%rbp),%eax
  401fe6:	8d 78 01             	lea    0x1(%rax),%edi
  401fe9:	8b 15 71 11 20 00    	mov    0x201171(%rip),%edx        # 603160 <bomb_id>
  401fef:	48 8d 4d 90          	lea    -0x70(%rbp),%rcx
  401ff3:	48 8b 45 f0          	mov    -0x10(%rbp),%rax
  401ff7:	48 83 ec 08          	sub    $0x8,%rsp
  401ffb:	56                   	push   %rsi
  401ffc:	41 89 f9             	mov    %edi,%r9d
  401fff:	49 89 c8             	mov    %rcx,%r8
  402002:	89 d1                	mov    %edx,%ecx
  402004:	48 8d 15 75 11 20 00 	lea    0x201175(%rip),%rdx        # 603180 <lab_id>
  40200b:	48 8d 35 7f 05 00 00 	lea    0x57f(%rip),%rsi        # 402591 <_IO_stdin_used+0x321>
  402012:	48 89 c7             	mov    %rax,%rdi
  402015:	b8 00 00 00 00       	mov    $0x0,%eax
  40201a:	e8 41 ed ff ff       	callq  400d60 <fprintf@plt>
  40201f:	48 83 c4 10          	add    $0x10,%rsp
  402023:	83 45 fc 01          	addl   $0x1,-0x4(%rbp)
  402027:	8b 05 0f 18 20 00    	mov    0x20180f(%rip),%eax        # 60383c <num_input_strings>
  40202d:	39 45 fc             	cmp    %eax,-0x4(%rbp)
  402030:	7c 92                	jl     401fc4 <send_msg_2+0x147>
  402032:	48 8b 45 f0          	mov    -0x10(%rbp),%rax
  402036:	48 89 c7             	mov    %rax,%rdi
  402039:	e8 a2 ec ff ff       	callq  400ce0 <rewind@plt>
  40203e:	4c 8d 05 d3 05 00 00 	lea    0x5d3(%rip),%r8        # 402618 <_IO_stdin_used+0x3a8>
  402045:	48 8d 0d d6 05 00 00 	lea    0x5d6(%rip),%rcx        # 402622 <_IO_stdin_used+0x3b2>
  40204c:	48 8d 15 d7 05 00 00 	lea    0x5d7(%rip),%rdx        # 40262a <_IO_stdin_used+0x3ba>
  402053:	48 8d 35 e7 05 00 00 	lea    0x5e7(%rip),%rsi        # 402641 <_IO_stdin_used+0x3d1>
  40205a:	48 8d 3d 3f 1e 20 00 	lea    0x201e3f(%rip),%rdi        # 603ea0 <scratch>
  402061:	b8 00 00 00 00       	mov    $0x0,%eax
  402066:	e8 95 ed ff ff       	callq  400e00 <sprintf@plt>
  40206b:	48 8d 3d 2e 1e 20 00 	lea    0x201e2e(%rip),%rdi        # 603ea0 <scratch>
  402072:	e8 39 ec ff ff       	callq  400cb0 <system@plt>
  402077:	85 c0                	test   %eax,%eax
  402079:	74 16                	je     402091 <send_msg_2+0x214>
  40207b:	48 8d 3d c8 05 00 00 	lea    0x5c8(%rip),%rdi        # 40264a <_IO_stdin_used+0x3da>
  402082:	e8 e9 eb ff ff       	callq  400c70 <puts@plt>
  402087:	bf 08 00 00 00       	mov    $0x8,%edi
  40208c:	e8 7f ed ff ff       	callq  400e10 <exit@plt>
  402091:	48 8b 45 f0          	mov    -0x10(%rbp),%rax
  402095:	48 89 c7             	mov    %rax,%rdi
  402098:	e8 f3 eb ff ff       	callq  400c90 <fclose@plt>
  40209d:	85 c0                	test   %eax,%eax
  40209f:	74 16                	je     4020b7 <send_msg_2+0x23a>
  4020a1:	48 8d 3d bc 05 00 00 	lea    0x5bc(%rip),%rdi        # 402664 <_IO_stdin_used+0x3f4>
  4020a8:	e8 c3 eb ff ff       	callq  400c70 <puts@plt>
  4020ad:	bf 08 00 00 00       	mov    $0x8,%edi
  4020b2:	e8 59 ed ff ff       	callq  400e10 <exit@plt>
  4020b7:	8b 45 f8             	mov    -0x8(%rbp),%eax
  4020ba:	89 c7                	mov    %eax,%edi
  4020bc:	e8 2f ec ff ff       	callq  400cf0 <dup@plt>
  4020c1:	85 c0                	test   %eax,%eax
  4020c3:	74 16                	je     4020db <send_msg_2+0x25e>
  4020c5:	48 8d 3d b1 05 00 00 	lea    0x5b1(%rip),%rdi        # 40267d <_IO_stdin_used+0x40d>
  4020cc:	e8 9f eb ff ff       	callq  400c70 <puts@plt>
  4020d1:	bf 08 00 00 00       	mov    $0x8,%edi
  4020d6:	e8 35 ed ff ff       	callq  400e10 <exit@plt>
  4020db:	8b 45 f8             	mov    -0x8(%rbp),%eax
  4020de:	89 c7                	mov    %eax,%edi
  4020e0:	e8 1b ec ff ff       	callq  400d00 <close@plt>
  4020e5:	85 c0                	test   %eax,%eax
  4020e7:	74 16                	je     4020ff <send_msg_2+0x282>
  4020e9:	48 8d 3d a8 05 00 00 	lea    0x5a8(%rip),%rdi        # 402698 <_IO_stdin_used+0x428>
  4020f0:	e8 7b eb ff ff       	callq  400c70 <puts@plt>
  4020f5:	bf 08 00 00 00       	mov    $0x8,%edi
  4020fa:	e8 11 ed ff ff       	callq  400e10 <exit@plt>
  4020ff:	90                   	nop
  402100:	c9                   	leaveq 
  402101:	c3                   	retq   

0000000000402102 <explode_bomb>:
  402102:	55                   	push   %rbp
  402103:	48 89 e5             	mov    %rsp,%rbp
  402106:	48 8d 3d a2 05 00 00 	lea    0x5a2(%rip),%rdi        # 4026af <_IO_stdin_used+0x43f>
  40210d:	e8 5e eb ff ff       	callq  400c70 <puts@plt>
  402112:	48 8d 3d 9f 05 00 00 	lea    0x59f(%rip),%rdi        # 4026b8 <_IO_stdin_used+0x448>
  402119:	e8 52 eb ff ff       	callq  400c70 <puts@plt>
  40211e:	bf 00 00 00 00       	mov    $0x0,%edi
  402123:	e8 b2 f9 ff ff       	callq  401ada <send_msg>
  402128:	48 8d 3d a1 05 00 00 	lea    0x5a1(%rip),%rdi        # 4026d0 <_IO_stdin_used+0x460>
  40212f:	e8 3c eb ff ff       	callq  400c70 <puts@plt>
  402134:	bf 08 00 00 00       	mov    $0x8,%edi
  402139:	e8 d2 ec ff ff       	callq  400e10 <exit@plt>

000000000040213e <phase_defused>:
  40213e:	55                   	push   %rbp
  40213f:	48 89 e5             	mov    %rsp,%rbp
  402142:	48 83 ec 70          	sub    $0x70,%rsp
  402146:	bf 01 00 00 00       	mov    $0x1,%edi
  40214b:	e8 8a f9 ff ff       	callq  401ada <send_msg>
  402150:	8b 05 e6 16 20 00    	mov    0x2016e6(%rip),%eax        # 60383c <num_input_strings>
  402156:	83 f8 06             	cmp    $0x6,%eax
  402159:	0f 85 80 00 00 00    	jne    4021df <phase_defused+0xa1>
  40215f:	48 8d 55 a0          	lea    -0x60(%rbp),%rdx
  402163:	48 8d 45 9c          	lea    -0x64(%rbp),%rax
  402167:	48 89 d1             	mov    %rdx,%rcx
  40216a:	48 89 c2             	mov    %rax,%rdx
  40216d:	48 8d 35 7f 05 00 00 	lea    0x57f(%rip),%rsi        # 4026f3 <_IO_stdin_used+0x483>
  402174:	48 8d 3d d5 17 20 00 	lea    0x2017d5(%rip),%rdi        # 603950 <input_strings+0xf0>
  40217b:	b8 00 00 00 00       	mov    $0x0,%eax
  402180:	e8 0b ec ff ff       	callq  400d90 <__isoc99_sscanf@plt>
  402185:	89 45 fc             	mov    %eax,-0x4(%rbp)
  402188:	83 7d fc 02          	cmpl   $0x2,-0x4(%rbp)
  40218c:	75 39                	jne    4021c7 <phase_defused+0x89>
  40218e:	48 8d 45 a0          	lea    -0x60(%rbp),%rax
  402192:	48 8d 35 60 05 00 00 	lea    0x560(%rip),%rsi        # 4026f9 <_IO_stdin_used+0x489>
  402199:	48 89 c7             	mov    %rax,%rdi
  40219c:	e8 28 f5 ff ff       	callq  4016c9 <strings_not_equal>
  4021a1:	85 c0                	test   %eax,%eax
  4021a3:	75 22                	jne    4021c7 <phase_defused+0x89>
  4021a5:	48 8d 3d 5c 05 00 00 	lea    0x55c(%rip),%rdi        # 402708 <_IO_stdin_used+0x498>
  4021ac:	e8 bf ea ff ff       	callq  400c70 <puts@plt>
  4021b1:	48 8d 3d 78 05 00 00 	lea    0x578(%rip),%rdi        # 402730 <_IO_stdin_used+0x4c0>
  4021b8:	e8 b3 ea ff ff       	callq  400c70 <puts@plt>
  4021bd:	b8 00 00 00 00       	mov    $0x0,%eax
  4021c2:	e8 6f f3 ff ff       	callq  401536 <secret_phase>
  4021c7:	48 8d 3d 9a 05 00 00 	lea    0x59a(%rip),%rdi        # 402768 <_IO_stdin_used+0x4f8>
  4021ce:	e8 9d ea ff ff       	callq  400c70 <puts@plt>
  4021d3:	48 8d 3d be 05 00 00 	lea    0x5be(%rip),%rdi        # 402798 <_IO_stdin_used+0x528>
  4021da:	e8 91 ea ff ff       	callq  400c70 <puts@plt>
  4021df:	90                   	nop
  4021e0:	c9                   	leaveq 
  4021e1:	c3                   	retq   
  4021e2:	66 2e 0f 1f 84 00 00 	nopw   %cs:0x0(%rax,%rax,1)
  4021e9:	00 00 00 
  4021ec:	0f 1f 40 00          	nopl   0x0(%rax)

00000000004021f0 <__libc_csu_init>:
  4021f0:	41 57                	push   %r15
  4021f2:	41 56                	push   %r14
  4021f4:	41 89 ff             	mov    %edi,%r15d
  4021f7:	41 55                	push   %r13
  4021f9:	41 54                	push   %r12
  4021fb:	4c 8d 25 06 0c 20 00 	lea    0x200c06(%rip),%r12        # 602e08 <__frame_dummy_init_array_entry>
  402202:	55                   	push   %rbp
  402203:	48 8d 2d 06 0c 20 00 	lea    0x200c06(%rip),%rbp        # 602e10 <__init_array_end>
  40220a:	53                   	push   %rbx
  40220b:	49 89 f6             	mov    %rsi,%r14
  40220e:	49 89 d5             	mov    %rdx,%r13
  402211:	4c 29 e5             	sub    %r12,%rbp
  402214:	48 83 ec 08          	sub    $0x8,%rsp
  402218:	48 c1 fd 03          	sar    $0x3,%rbp
  40221c:	e8 ef e9 ff ff       	callq  400c10 <_init>
  402221:	48 85 ed             	test   %rbp,%rbp
  402224:	74 20                	je     402246 <__libc_csu_init+0x56>
  402226:	31 db                	xor    %ebx,%ebx
  402228:	0f 1f 84 00 00 00 00 	nopl   0x0(%rax,%rax,1)
  40222f:	00 
  402230:	4c 89 ea             	mov    %r13,%rdx
  402233:	4c 89 f6             	mov    %r14,%rsi
  402236:	44 89 ff             	mov    %r15d,%edi
  402239:	41 ff 14 dc          	callq  *(%r12,%rbx,8)
  40223d:	48 83 c3 01          	add    $0x1,%rbx
  402241:	48 39 dd             	cmp    %rbx,%rbp
  402244:	75 ea                	jne    402230 <__libc_csu_init+0x40>
  402246:	48 83 c4 08          	add    $0x8,%rsp
  40224a:	5b                   	pop    %rbx
  40224b:	5d                   	pop    %rbp
  40224c:	41 5c                	pop    %r12
  40224e:	41 5d                	pop    %r13
  402250:	41 5e                	pop    %r14
  402252:	41 5f                	pop    %r15
  402254:	c3                   	retq   
  402255:	90                   	nop
  402256:	66 2e 0f 1f 84 00 00 	nopw   %cs:0x0(%rax,%rax,1)
  40225d:	00 00 00 

0000000000402260 <__libc_csu_fini>:
  402260:	f3 c3                	repz retq 

Disassembly of section .fini:

0000000000402264 <_fini>:
  402264:	48 83 ec 08          	sub    $0x8,%rsp
  402268:	48 83 c4 08          	add    $0x8,%rsp
  40226c:	c3                   	retq   
